ARM GAS  C:\Users\danie\AppData\Local\Temp\cczXkyFe.s 			page 1


   1              		.cpu cortex-m3
   2              		.eabi_attribute 20, 1
   3              		.eabi_attribute 21, 1
   4              		.eabi_attribute 23, 3
   5              		.eabi_attribute 24, 1
   6              		.eabi_attribute 25, 1
   7              		.eabi_attribute 26, 1
   8              		.eabi_attribute 30, 6
   9              		.eabi_attribute 34, 1
  10              		.eabi_attribute 18, 4
  11              		.file	"stm32f1xx_hal_adc_ex.c"
  12              		.text
  13              	.Ltext0:
  14              		.cfi_sections	.debug_frame
  15              		.section	.text.HAL_ADCEx_Calibration_Start,"ax",%progbits
  16              		.align	1
  17              		.global	HAL_ADCEx_Calibration_Start
  18              		.arch armv7-m
  19              		.syntax unified
  20              		.thumb
  21              		.thumb_func
  22              		.fpu softvfp
  24              	HAL_ADCEx_Calibration_Start:
  25              	.LFB65:
  26              		.file 1 "Drivers/STM32F1xx_HAL_Driver/Src/stm32f1xx_hal_adc_ex.c"
   1:Drivers/STM32F1xx_HAL_Driver/Src/stm32f1xx_hal_adc_ex.c **** /**
   2:Drivers/STM32F1xx_HAL_Driver/Src/stm32f1xx_hal_adc_ex.c ****   ******************************************************************************
   3:Drivers/STM32F1xx_HAL_Driver/Src/stm32f1xx_hal_adc_ex.c ****   * @file    stm32f1xx_hal_adc_ex.c
   4:Drivers/STM32F1xx_HAL_Driver/Src/stm32f1xx_hal_adc_ex.c ****   * @author  MCD Application Team
   5:Drivers/STM32F1xx_HAL_Driver/Src/stm32f1xx_hal_adc_ex.c ****   * @brief   This file provides firmware functions to manage the following 
   6:Drivers/STM32F1xx_HAL_Driver/Src/stm32f1xx_hal_adc_ex.c ****   *          functionalities of the Analog to Digital Convertor (ADC)
   7:Drivers/STM32F1xx_HAL_Driver/Src/stm32f1xx_hal_adc_ex.c ****   *          peripheral:
   8:Drivers/STM32F1xx_HAL_Driver/Src/stm32f1xx_hal_adc_ex.c ****   *           + Operation functions
   9:Drivers/STM32F1xx_HAL_Driver/Src/stm32f1xx_hal_adc_ex.c ****   *             ++ Start, stop, get result of conversions of injected
  10:Drivers/STM32F1xx_HAL_Driver/Src/stm32f1xx_hal_adc_ex.c ****   *                group, using 2 possible modes: polling, interruption.
  11:Drivers/STM32F1xx_HAL_Driver/Src/stm32f1xx_hal_adc_ex.c ****   *             ++ Multimode feature (available on devices with 2 ADCs or more)
  12:Drivers/STM32F1xx_HAL_Driver/Src/stm32f1xx_hal_adc_ex.c ****   *             ++ Calibration (ADC automatic self-calibration)
  13:Drivers/STM32F1xx_HAL_Driver/Src/stm32f1xx_hal_adc_ex.c ****   *           + Control functions
  14:Drivers/STM32F1xx_HAL_Driver/Src/stm32f1xx_hal_adc_ex.c ****   *             ++ Channels configuration on injected group
  15:Drivers/STM32F1xx_HAL_Driver/Src/stm32f1xx_hal_adc_ex.c ****   *          Other functions (generic functions) are available in file 
  16:Drivers/STM32F1xx_HAL_Driver/Src/stm32f1xx_hal_adc_ex.c ****   *          "stm32f1xx_hal_adc.c".
  17:Drivers/STM32F1xx_HAL_Driver/Src/stm32f1xx_hal_adc_ex.c ****   *
  18:Drivers/STM32F1xx_HAL_Driver/Src/stm32f1xx_hal_adc_ex.c ****   @verbatim
  19:Drivers/STM32F1xx_HAL_Driver/Src/stm32f1xx_hal_adc_ex.c ****   [..] 
  20:Drivers/STM32F1xx_HAL_Driver/Src/stm32f1xx_hal_adc_ex.c ****   (@) Sections "ADC peripheral features" and "How to use this driver" are
  21:Drivers/STM32F1xx_HAL_Driver/Src/stm32f1xx_hal_adc_ex.c ****       available in file of generic functions "stm32f1xx_hal_adc.c".
  22:Drivers/STM32F1xx_HAL_Driver/Src/stm32f1xx_hal_adc_ex.c ****   [..]
  23:Drivers/STM32F1xx_HAL_Driver/Src/stm32f1xx_hal_adc_ex.c ****   @endverbatim
  24:Drivers/STM32F1xx_HAL_Driver/Src/stm32f1xx_hal_adc_ex.c ****   ******************************************************************************
  25:Drivers/STM32F1xx_HAL_Driver/Src/stm32f1xx_hal_adc_ex.c ****   * @attention
  26:Drivers/STM32F1xx_HAL_Driver/Src/stm32f1xx_hal_adc_ex.c ****   *
  27:Drivers/STM32F1xx_HAL_Driver/Src/stm32f1xx_hal_adc_ex.c ****   * <h2><center>&copy; Copyright (c) 2016 STMicroelectronics.
  28:Drivers/STM32F1xx_HAL_Driver/Src/stm32f1xx_hal_adc_ex.c ****   * All rights reserved.</center></h2>
  29:Drivers/STM32F1xx_HAL_Driver/Src/stm32f1xx_hal_adc_ex.c ****   *
  30:Drivers/STM32F1xx_HAL_Driver/Src/stm32f1xx_hal_adc_ex.c ****   * This software component is licensed by ST under BSD 3-Clause license,
  31:Drivers/STM32F1xx_HAL_Driver/Src/stm32f1xx_hal_adc_ex.c ****   * the "License"; You may not use this file except in compliance with the
  32:Drivers/STM32F1xx_HAL_Driver/Src/stm32f1xx_hal_adc_ex.c ****   * License. You may obtain a copy of the License at:
ARM GAS  C:\Users\danie\AppData\Local\Temp\cczXkyFe.s 			page 2


  33:Drivers/STM32F1xx_HAL_Driver/Src/stm32f1xx_hal_adc_ex.c ****   *                        opensource.org/licenses/BSD-3-Clause
  34:Drivers/STM32F1xx_HAL_Driver/Src/stm32f1xx_hal_adc_ex.c ****   *
  35:Drivers/STM32F1xx_HAL_Driver/Src/stm32f1xx_hal_adc_ex.c ****   ******************************************************************************
  36:Drivers/STM32F1xx_HAL_Driver/Src/stm32f1xx_hal_adc_ex.c ****   */
  37:Drivers/STM32F1xx_HAL_Driver/Src/stm32f1xx_hal_adc_ex.c **** 
  38:Drivers/STM32F1xx_HAL_Driver/Src/stm32f1xx_hal_adc_ex.c **** /* Includes ------------------------------------------------------------------*/
  39:Drivers/STM32F1xx_HAL_Driver/Src/stm32f1xx_hal_adc_ex.c **** #include "stm32f1xx_hal.h"
  40:Drivers/STM32F1xx_HAL_Driver/Src/stm32f1xx_hal_adc_ex.c **** 
  41:Drivers/STM32F1xx_HAL_Driver/Src/stm32f1xx_hal_adc_ex.c **** /** @addtogroup STM32F1xx_HAL_Driver
  42:Drivers/STM32F1xx_HAL_Driver/Src/stm32f1xx_hal_adc_ex.c ****   * @{
  43:Drivers/STM32F1xx_HAL_Driver/Src/stm32f1xx_hal_adc_ex.c ****   */
  44:Drivers/STM32F1xx_HAL_Driver/Src/stm32f1xx_hal_adc_ex.c **** 
  45:Drivers/STM32F1xx_HAL_Driver/Src/stm32f1xx_hal_adc_ex.c **** /** @defgroup ADCEx ADCEx
  46:Drivers/STM32F1xx_HAL_Driver/Src/stm32f1xx_hal_adc_ex.c ****   * @brief ADC Extension HAL module driver
  47:Drivers/STM32F1xx_HAL_Driver/Src/stm32f1xx_hal_adc_ex.c ****   * @{
  48:Drivers/STM32F1xx_HAL_Driver/Src/stm32f1xx_hal_adc_ex.c ****   */
  49:Drivers/STM32F1xx_HAL_Driver/Src/stm32f1xx_hal_adc_ex.c **** 
  50:Drivers/STM32F1xx_HAL_Driver/Src/stm32f1xx_hal_adc_ex.c **** #ifdef HAL_ADC_MODULE_ENABLED
  51:Drivers/STM32F1xx_HAL_Driver/Src/stm32f1xx_hal_adc_ex.c **** 
  52:Drivers/STM32F1xx_HAL_Driver/Src/stm32f1xx_hal_adc_ex.c **** /* Private typedef -----------------------------------------------------------*/
  53:Drivers/STM32F1xx_HAL_Driver/Src/stm32f1xx_hal_adc_ex.c **** /* Private define ------------------------------------------------------------*/
  54:Drivers/STM32F1xx_HAL_Driver/Src/stm32f1xx_hal_adc_ex.c **** /** @defgroup ADCEx_Private_Constants ADCEx Private Constants
  55:Drivers/STM32F1xx_HAL_Driver/Src/stm32f1xx_hal_adc_ex.c ****   * @{
  56:Drivers/STM32F1xx_HAL_Driver/Src/stm32f1xx_hal_adc_ex.c ****   */
  57:Drivers/STM32F1xx_HAL_Driver/Src/stm32f1xx_hal_adc_ex.c **** 
  58:Drivers/STM32F1xx_HAL_Driver/Src/stm32f1xx_hal_adc_ex.c ****   /* Delay for ADC calibration:                                               */
  59:Drivers/STM32F1xx_HAL_Driver/Src/stm32f1xx_hal_adc_ex.c ****   /* Hardware prerequisite before starting a calibration: the ADC must have   */
  60:Drivers/STM32F1xx_HAL_Driver/Src/stm32f1xx_hal_adc_ex.c ****   /* been in power-on state for at least two ADC clock cycles.                */
  61:Drivers/STM32F1xx_HAL_Driver/Src/stm32f1xx_hal_adc_ex.c ****   /* Unit: ADC clock cycles                                                   */
  62:Drivers/STM32F1xx_HAL_Driver/Src/stm32f1xx_hal_adc_ex.c ****   #define ADC_PRECALIBRATION_DELAY_ADCCLOCKCYCLES       2U
  63:Drivers/STM32F1xx_HAL_Driver/Src/stm32f1xx_hal_adc_ex.c **** 
  64:Drivers/STM32F1xx_HAL_Driver/Src/stm32f1xx_hal_adc_ex.c ****   /* Timeout value for ADC calibration                                        */
  65:Drivers/STM32F1xx_HAL_Driver/Src/stm32f1xx_hal_adc_ex.c ****   /* Value defined to be higher than worst cases: low clocks freq,            */
  66:Drivers/STM32F1xx_HAL_Driver/Src/stm32f1xx_hal_adc_ex.c ****   /* maximum prescaler.                                                       */
  67:Drivers/STM32F1xx_HAL_Driver/Src/stm32f1xx_hal_adc_ex.c ****   /* Ex of profile low frequency : Clock source at 0.1 MHz, ADC clock         */
  68:Drivers/STM32F1xx_HAL_Driver/Src/stm32f1xx_hal_adc_ex.c ****   /* prescaler 4, sampling time 12.5 ADC clock cycles, resolution 12 bits.    */
  69:Drivers/STM32F1xx_HAL_Driver/Src/stm32f1xx_hal_adc_ex.c ****   /* Unit: ms                                                                 */
  70:Drivers/STM32F1xx_HAL_Driver/Src/stm32f1xx_hal_adc_ex.c ****   #define ADC_CALIBRATION_TIMEOUT          10U
  71:Drivers/STM32F1xx_HAL_Driver/Src/stm32f1xx_hal_adc_ex.c **** 
  72:Drivers/STM32F1xx_HAL_Driver/Src/stm32f1xx_hal_adc_ex.c ****   /* Delay for temperature sensor stabilization time.                         */
  73:Drivers/STM32F1xx_HAL_Driver/Src/stm32f1xx_hal_adc_ex.c ****   /* Maximum delay is 10us (refer to device datasheet, parameter tSTART).     */
  74:Drivers/STM32F1xx_HAL_Driver/Src/stm32f1xx_hal_adc_ex.c ****   /* Unit: us                                                                 */
  75:Drivers/STM32F1xx_HAL_Driver/Src/stm32f1xx_hal_adc_ex.c ****   #define ADC_TEMPSENSOR_DELAY_US         10U
  76:Drivers/STM32F1xx_HAL_Driver/Src/stm32f1xx_hal_adc_ex.c **** 
  77:Drivers/STM32F1xx_HAL_Driver/Src/stm32f1xx_hal_adc_ex.c **** /**
  78:Drivers/STM32F1xx_HAL_Driver/Src/stm32f1xx_hal_adc_ex.c ****   * @}
  79:Drivers/STM32F1xx_HAL_Driver/Src/stm32f1xx_hal_adc_ex.c ****   */
  80:Drivers/STM32F1xx_HAL_Driver/Src/stm32f1xx_hal_adc_ex.c **** 
  81:Drivers/STM32F1xx_HAL_Driver/Src/stm32f1xx_hal_adc_ex.c **** /* Private macro -------------------------------------------------------------*/
  82:Drivers/STM32F1xx_HAL_Driver/Src/stm32f1xx_hal_adc_ex.c **** /* Private variables ---------------------------------------------------------*/
  83:Drivers/STM32F1xx_HAL_Driver/Src/stm32f1xx_hal_adc_ex.c **** /* Private function prototypes -----------------------------------------------*/
  84:Drivers/STM32F1xx_HAL_Driver/Src/stm32f1xx_hal_adc_ex.c **** /* Private functions ---------------------------------------------------------*/
  85:Drivers/STM32F1xx_HAL_Driver/Src/stm32f1xx_hal_adc_ex.c **** 
  86:Drivers/STM32F1xx_HAL_Driver/Src/stm32f1xx_hal_adc_ex.c **** /** @defgroup ADCEx_Exported_Functions ADCEx Exported Functions
  87:Drivers/STM32F1xx_HAL_Driver/Src/stm32f1xx_hal_adc_ex.c ****   * @{
  88:Drivers/STM32F1xx_HAL_Driver/Src/stm32f1xx_hal_adc_ex.c ****   */
  89:Drivers/STM32F1xx_HAL_Driver/Src/stm32f1xx_hal_adc_ex.c **** 
ARM GAS  C:\Users\danie\AppData\Local\Temp\cczXkyFe.s 			page 3


  90:Drivers/STM32F1xx_HAL_Driver/Src/stm32f1xx_hal_adc_ex.c **** /** @defgroup ADCEx_Exported_Functions_Group1 Extended Extended IO operation functions
  91:Drivers/STM32F1xx_HAL_Driver/Src/stm32f1xx_hal_adc_ex.c ****  *  @brief    Extended Extended Input and Output operation functions
  92:Drivers/STM32F1xx_HAL_Driver/Src/stm32f1xx_hal_adc_ex.c ****  *
  93:Drivers/STM32F1xx_HAL_Driver/Src/stm32f1xx_hal_adc_ex.c **** @verbatim    
  94:Drivers/STM32F1xx_HAL_Driver/Src/stm32f1xx_hal_adc_ex.c ****  ===============================================================================
  95:Drivers/STM32F1xx_HAL_Driver/Src/stm32f1xx_hal_adc_ex.c ****                       ##### IO operation functions #####
  96:Drivers/STM32F1xx_HAL_Driver/Src/stm32f1xx_hal_adc_ex.c ****  ===============================================================================
  97:Drivers/STM32F1xx_HAL_Driver/Src/stm32f1xx_hal_adc_ex.c ****     [..]  This section provides functions allowing to:
  98:Drivers/STM32F1xx_HAL_Driver/Src/stm32f1xx_hal_adc_ex.c ****       (+) Start conversion of injected group.
  99:Drivers/STM32F1xx_HAL_Driver/Src/stm32f1xx_hal_adc_ex.c ****       (+) Stop conversion of injected group.
 100:Drivers/STM32F1xx_HAL_Driver/Src/stm32f1xx_hal_adc_ex.c ****       (+) Poll for conversion complete on injected group.
 101:Drivers/STM32F1xx_HAL_Driver/Src/stm32f1xx_hal_adc_ex.c ****       (+) Get result of injected channel conversion.
 102:Drivers/STM32F1xx_HAL_Driver/Src/stm32f1xx_hal_adc_ex.c ****       (+) Start conversion of injected group and enable interruptions.
 103:Drivers/STM32F1xx_HAL_Driver/Src/stm32f1xx_hal_adc_ex.c ****       (+) Stop conversion of injected group and disable interruptions.
 104:Drivers/STM32F1xx_HAL_Driver/Src/stm32f1xx_hal_adc_ex.c **** 
 105:Drivers/STM32F1xx_HAL_Driver/Src/stm32f1xx_hal_adc_ex.c ****       (+) Start multimode and enable DMA transfer.
 106:Drivers/STM32F1xx_HAL_Driver/Src/stm32f1xx_hal_adc_ex.c ****       (+) Stop multimode and disable ADC DMA transfer.
 107:Drivers/STM32F1xx_HAL_Driver/Src/stm32f1xx_hal_adc_ex.c ****       (+) Get result of multimode conversion.
 108:Drivers/STM32F1xx_HAL_Driver/Src/stm32f1xx_hal_adc_ex.c **** 
 109:Drivers/STM32F1xx_HAL_Driver/Src/stm32f1xx_hal_adc_ex.c ****       (+) Perform the ADC self-calibration for single or differential ending.
 110:Drivers/STM32F1xx_HAL_Driver/Src/stm32f1xx_hal_adc_ex.c ****       (+) Get calibration factors for single or differential ending.
 111:Drivers/STM32F1xx_HAL_Driver/Src/stm32f1xx_hal_adc_ex.c ****       (+) Set calibration factors for single or differential ending.
 112:Drivers/STM32F1xx_HAL_Driver/Src/stm32f1xx_hal_adc_ex.c ****       
 113:Drivers/STM32F1xx_HAL_Driver/Src/stm32f1xx_hal_adc_ex.c **** @endverbatim
 114:Drivers/STM32F1xx_HAL_Driver/Src/stm32f1xx_hal_adc_ex.c ****   * @{
 115:Drivers/STM32F1xx_HAL_Driver/Src/stm32f1xx_hal_adc_ex.c ****   */
 116:Drivers/STM32F1xx_HAL_Driver/Src/stm32f1xx_hal_adc_ex.c **** 
 117:Drivers/STM32F1xx_HAL_Driver/Src/stm32f1xx_hal_adc_ex.c **** /**
 118:Drivers/STM32F1xx_HAL_Driver/Src/stm32f1xx_hal_adc_ex.c ****   * @brief  Perform an ADC automatic self-calibration
 119:Drivers/STM32F1xx_HAL_Driver/Src/stm32f1xx_hal_adc_ex.c ****   *         Calibration prerequisite: ADC must be disabled (execute this
 120:Drivers/STM32F1xx_HAL_Driver/Src/stm32f1xx_hal_adc_ex.c ****   *         function before HAL_ADC_Start() or after HAL_ADC_Stop() ).
 121:Drivers/STM32F1xx_HAL_Driver/Src/stm32f1xx_hal_adc_ex.c ****   *         During calibration process, ADC is enabled. ADC is let enabled at
 122:Drivers/STM32F1xx_HAL_Driver/Src/stm32f1xx_hal_adc_ex.c ****   *         the completion of this function.
 123:Drivers/STM32F1xx_HAL_Driver/Src/stm32f1xx_hal_adc_ex.c ****   * @param  hadc: ADC handle
 124:Drivers/STM32F1xx_HAL_Driver/Src/stm32f1xx_hal_adc_ex.c ****   * @retval HAL status
 125:Drivers/STM32F1xx_HAL_Driver/Src/stm32f1xx_hal_adc_ex.c ****   */
 126:Drivers/STM32F1xx_HAL_Driver/Src/stm32f1xx_hal_adc_ex.c **** HAL_StatusTypeDef HAL_ADCEx_Calibration_Start(ADC_HandleTypeDef* hadc)
 127:Drivers/STM32F1xx_HAL_Driver/Src/stm32f1xx_hal_adc_ex.c **** {
  27              		.loc 1 127 1
  28              		.cfi_startproc
  29              		@ args = 0, pretend = 0, frame = 24
  30              		@ frame_needed = 1, uses_anonymous_args = 0
  31 0000 90B5     		push	{r4, r7, lr}
  32              	.LCFI0:
  33              		.cfi_def_cfa_offset 12
  34              		.cfi_offset 4, -12
  35              		.cfi_offset 7, -8
  36              		.cfi_offset 14, -4
  37 0002 87B0     		sub	sp, sp, #28
  38              	.LCFI1:
  39              		.cfi_def_cfa_offset 40
  40 0004 00AF     		add	r7, sp, #0
  41              	.LCFI2:
  42              		.cfi_def_cfa_register 7
  43 0006 7860     		str	r0, [r7, #4]
 128:Drivers/STM32F1xx_HAL_Driver/Src/stm32f1xx_hal_adc_ex.c ****   HAL_StatusTypeDef tmp_hal_status = HAL_OK;
  44              		.loc 1 128 21
ARM GAS  C:\Users\danie\AppData\Local\Temp\cczXkyFe.s 			page 4


  45 0008 0023     		movs	r3, #0
  46 000a FB75     		strb	r3, [r7, #23]
 129:Drivers/STM32F1xx_HAL_Driver/Src/stm32f1xx_hal_adc_ex.c ****   uint32_t tickstart;
 130:Drivers/STM32F1xx_HAL_Driver/Src/stm32f1xx_hal_adc_ex.c ****   __IO uint32_t wait_loop_index = 0U;
  47              		.loc 1 130 17
  48 000c 0023     		movs	r3, #0
  49 000e FB60     		str	r3, [r7, #12]
 131:Drivers/STM32F1xx_HAL_Driver/Src/stm32f1xx_hal_adc_ex.c ****   
 132:Drivers/STM32F1xx_HAL_Driver/Src/stm32f1xx_hal_adc_ex.c ****   /* Check the parameters */
 133:Drivers/STM32F1xx_HAL_Driver/Src/stm32f1xx_hal_adc_ex.c ****   assert_param(IS_ADC_ALL_INSTANCE(hadc->Instance));
 134:Drivers/STM32F1xx_HAL_Driver/Src/stm32f1xx_hal_adc_ex.c **** 
 135:Drivers/STM32F1xx_HAL_Driver/Src/stm32f1xx_hal_adc_ex.c ****   /* Process locked */
 136:Drivers/STM32F1xx_HAL_Driver/Src/stm32f1xx_hal_adc_ex.c ****   __HAL_LOCK(hadc);
  50              		.loc 1 136 3
  51 0010 7B68     		ldr	r3, [r7, #4]
  52 0012 93F82430 		ldrb	r3, [r3, #36]	@ zero_extendqisi2
  53 0016 012B     		cmp	r3, #1
  54 0018 01D1     		bne	.L2
  55              		.loc 1 136 3 is_stmt 0 discriminator 1
  56 001a 0223     		movs	r3, #2
  57 001c 95E0     		b	.L3
  58              	.L2:
  59              		.loc 1 136 3 discriminator 2
  60 001e 7B68     		ldr	r3, [r7, #4]
  61 0020 0122     		movs	r2, #1
  62 0022 83F82420 		strb	r2, [r3, #36]
 137:Drivers/STM32F1xx_HAL_Driver/Src/stm32f1xx_hal_adc_ex.c ****     
 138:Drivers/STM32F1xx_HAL_Driver/Src/stm32f1xx_hal_adc_ex.c ****   /* 1. Calibration prerequisite:                                             */
 139:Drivers/STM32F1xx_HAL_Driver/Src/stm32f1xx_hal_adc_ex.c ****   /*    - ADC must be disabled for at least two ADC clock cycles in disable   */
 140:Drivers/STM32F1xx_HAL_Driver/Src/stm32f1xx_hal_adc_ex.c ****   /*      mode before ADC enable                                              */
 141:Drivers/STM32F1xx_HAL_Driver/Src/stm32f1xx_hal_adc_ex.c ****   /* Stop potential conversion on going, on regular and injected groups       */
 142:Drivers/STM32F1xx_HAL_Driver/Src/stm32f1xx_hal_adc_ex.c ****   /* Disable ADC peripheral */
 143:Drivers/STM32F1xx_HAL_Driver/Src/stm32f1xx_hal_adc_ex.c ****   tmp_hal_status = ADC_ConversionStop_Disable(hadc);
  63              		.loc 1 143 20 is_stmt 1 discriminator 2
  64 0026 7868     		ldr	r0, [r7, #4]
  65 0028 FFF7FEFF 		bl	ADC_ConversionStop_Disable
  66 002c 0346     		mov	r3, r0
  67 002e FB75     		strb	r3, [r7, #23]
 144:Drivers/STM32F1xx_HAL_Driver/Src/stm32f1xx_hal_adc_ex.c ****   
 145:Drivers/STM32F1xx_HAL_Driver/Src/stm32f1xx_hal_adc_ex.c ****   /* Check if ADC is effectively disabled */
 146:Drivers/STM32F1xx_HAL_Driver/Src/stm32f1xx_hal_adc_ex.c ****   if (tmp_hal_status == HAL_OK)
  68              		.loc 1 146 6 discriminator 2
  69 0030 FB7D     		ldrb	r3, [r7, #23]	@ zero_extendqisi2
  70 0032 002B     		cmp	r3, #0
  71 0034 40F08480 		bne	.L4
 147:Drivers/STM32F1xx_HAL_Driver/Src/stm32f1xx_hal_adc_ex.c ****   {
 148:Drivers/STM32F1xx_HAL_Driver/Src/stm32f1xx_hal_adc_ex.c ****     /* Set ADC state */
 149:Drivers/STM32F1xx_HAL_Driver/Src/stm32f1xx_hal_adc_ex.c ****     ADC_STATE_CLR_SET(hadc->State,
  72              		.loc 1 149 5
  73 0038 7B68     		ldr	r3, [r7, #4]
  74 003a 9B6A     		ldr	r3, [r3, #40]
  75 003c 23F48853 		bic	r3, r3, #4352
  76 0040 23F00203 		bic	r3, r3, #2
  77 0044 43F00202 		orr	r2, r3, #2
  78 0048 7B68     		ldr	r3, [r7, #4]
  79 004a 9A62     		str	r2, [r3, #40]
 150:Drivers/STM32F1xx_HAL_Driver/Src/stm32f1xx_hal_adc_ex.c ****                       HAL_ADC_STATE_REG_BUSY | HAL_ADC_STATE_INJ_BUSY,
ARM GAS  C:\Users\danie\AppData\Local\Temp\cczXkyFe.s 			page 5


 151:Drivers/STM32F1xx_HAL_Driver/Src/stm32f1xx_hal_adc_ex.c ****                       HAL_ADC_STATE_BUSY_INTERNAL);
 152:Drivers/STM32F1xx_HAL_Driver/Src/stm32f1xx_hal_adc_ex.c ****     
 153:Drivers/STM32F1xx_HAL_Driver/Src/stm32f1xx_hal_adc_ex.c ****     /* Hardware prerequisite: delay before starting the calibration.          */
 154:Drivers/STM32F1xx_HAL_Driver/Src/stm32f1xx_hal_adc_ex.c ****     /*  - Computation of CPU clock cycles corresponding to ADC clock cycles.  */
 155:Drivers/STM32F1xx_HAL_Driver/Src/stm32f1xx_hal_adc_ex.c ****     /*  - Wait for the expected ADC clock cycles delay */
 156:Drivers/STM32F1xx_HAL_Driver/Src/stm32f1xx_hal_adc_ex.c ****     wait_loop_index = ((SystemCoreClock
 157:Drivers/STM32F1xx_HAL_Driver/Src/stm32f1xx_hal_adc_ex.c ****                         / HAL_RCCEx_GetPeriphCLKFreq(RCC_PERIPHCLK_ADC))
  80              		.loc 1 157 25
  81 004c 414B     		ldr	r3, .L11
  82 004e 1C68     		ldr	r4, [r3]
  83              		.loc 1 157 27
  84 0050 0220     		movs	r0, #2
  85 0052 FFF7FEFF 		bl	HAL_RCCEx_GetPeriphCLKFreq
  86 0056 0346     		mov	r3, r0
  87              		.loc 1 157 25
  88 0058 B4FBF3F3 		udiv	r3, r4, r3
 158:Drivers/STM32F1xx_HAL_Driver/Src/stm32f1xx_hal_adc_ex.c ****                        * ADC_PRECALIBRATION_DELAY_ADCCLOCKCYCLES        );
  89              		.loc 1 158 24
  90 005c 5B00     		lsls	r3, r3, #1
 156:Drivers/STM32F1xx_HAL_Driver/Src/stm32f1xx_hal_adc_ex.c ****                         / HAL_RCCEx_GetPeriphCLKFreq(RCC_PERIPHCLK_ADC))
  91              		.loc 1 156 21
  92 005e FB60     		str	r3, [r7, #12]
 159:Drivers/STM32F1xx_HAL_Driver/Src/stm32f1xx_hal_adc_ex.c **** 
 160:Drivers/STM32F1xx_HAL_Driver/Src/stm32f1xx_hal_adc_ex.c ****     while(wait_loop_index != 0U)
  93              		.loc 1 160 10
  94 0060 02E0     		b	.L5
  95              	.L6:
 161:Drivers/STM32F1xx_HAL_Driver/Src/stm32f1xx_hal_adc_ex.c ****     {
 162:Drivers/STM32F1xx_HAL_Driver/Src/stm32f1xx_hal_adc_ex.c ****       wait_loop_index--;
  96              		.loc 1 162 22
  97 0062 FB68     		ldr	r3, [r7, #12]
  98 0064 013B     		subs	r3, r3, #1
  99 0066 FB60     		str	r3, [r7, #12]
 100              	.L5:
 160:Drivers/STM32F1xx_HAL_Driver/Src/stm32f1xx_hal_adc_ex.c ****     {
 101              		.loc 1 160 27
 102 0068 FB68     		ldr	r3, [r7, #12]
 160:Drivers/STM32F1xx_HAL_Driver/Src/stm32f1xx_hal_adc_ex.c ****     {
 103              		.loc 1 160 10
 104 006a 002B     		cmp	r3, #0
 105 006c F9D1     		bne	.L6
 163:Drivers/STM32F1xx_HAL_Driver/Src/stm32f1xx_hal_adc_ex.c ****     }
 164:Drivers/STM32F1xx_HAL_Driver/Src/stm32f1xx_hal_adc_ex.c ****     
 165:Drivers/STM32F1xx_HAL_Driver/Src/stm32f1xx_hal_adc_ex.c ****     /* 2. Enable the ADC peripheral */
 166:Drivers/STM32F1xx_HAL_Driver/Src/stm32f1xx_hal_adc_ex.c ****     ADC_Enable(hadc);
 106              		.loc 1 166 5
 107 006e 7868     		ldr	r0, [r7, #4]
 108 0070 FFF7FEFF 		bl	ADC_Enable
 167:Drivers/STM32F1xx_HAL_Driver/Src/stm32f1xx_hal_adc_ex.c ****     
 168:Drivers/STM32F1xx_HAL_Driver/Src/stm32f1xx_hal_adc_ex.c ****     /* 3. Resets ADC calibration registers */  
 169:Drivers/STM32F1xx_HAL_Driver/Src/stm32f1xx_hal_adc_ex.c ****     SET_BIT(hadc->Instance->CR2, ADC_CR2_RSTCAL);
 109              		.loc 1 169 5
 110 0074 7B68     		ldr	r3, [r7, #4]
 111 0076 1B68     		ldr	r3, [r3]
 112 0078 9A68     		ldr	r2, [r3, #8]
 113 007a 7B68     		ldr	r3, [r7, #4]
 114 007c 1B68     		ldr	r3, [r3]
ARM GAS  C:\Users\danie\AppData\Local\Temp\cczXkyFe.s 			page 6


 115 007e 42F00802 		orr	r2, r2, #8
 116 0082 9A60     		str	r2, [r3, #8]
 170:Drivers/STM32F1xx_HAL_Driver/Src/stm32f1xx_hal_adc_ex.c ****     
 171:Drivers/STM32F1xx_HAL_Driver/Src/stm32f1xx_hal_adc_ex.c ****     tickstart = HAL_GetTick();  
 117              		.loc 1 171 17
 118 0084 FFF7FEFF 		bl	HAL_GetTick
 119 0088 3861     		str	r0, [r7, #16]
 172:Drivers/STM32F1xx_HAL_Driver/Src/stm32f1xx_hal_adc_ex.c **** 
 173:Drivers/STM32F1xx_HAL_Driver/Src/stm32f1xx_hal_adc_ex.c ****     /* Wait for calibration reset completion */
 174:Drivers/STM32F1xx_HAL_Driver/Src/stm32f1xx_hal_adc_ex.c ****     while(HAL_IS_BIT_SET(hadc->Instance->CR2, ADC_CR2_RSTCAL))
 120              		.loc 1 174 10
 121 008a 1BE0     		b	.L7
 122              	.L8:
 175:Drivers/STM32F1xx_HAL_Driver/Src/stm32f1xx_hal_adc_ex.c ****     {
 176:Drivers/STM32F1xx_HAL_Driver/Src/stm32f1xx_hal_adc_ex.c ****       if((HAL_GetTick() - tickstart) > ADC_CALIBRATION_TIMEOUT)
 123              		.loc 1 176 11
 124 008c FFF7FEFF 		bl	HAL_GetTick
 125 0090 0246     		mov	r2, r0
 126              		.loc 1 176 25
 127 0092 3B69     		ldr	r3, [r7, #16]
 128 0094 D31A     		subs	r3, r2, r3
 129              		.loc 1 176 9
 130 0096 0A2B     		cmp	r3, #10
 131 0098 14D9     		bls	.L7
 177:Drivers/STM32F1xx_HAL_Driver/Src/stm32f1xx_hal_adc_ex.c ****       {
 178:Drivers/STM32F1xx_HAL_Driver/Src/stm32f1xx_hal_adc_ex.c ****         /* New check to avoid false timeout detection in case of preemption */
 179:Drivers/STM32F1xx_HAL_Driver/Src/stm32f1xx_hal_adc_ex.c ****         if(HAL_IS_BIT_SET(hadc->Instance->CR2, ADC_CR2_RSTCAL))
 132              		.loc 1 179 12
 133 009a 7B68     		ldr	r3, [r7, #4]
 134 009c 1B68     		ldr	r3, [r3]
 135 009e 9B68     		ldr	r3, [r3, #8]
 136 00a0 03F00803 		and	r3, r3, #8
 137              		.loc 1 179 11
 138 00a4 002B     		cmp	r3, #0
 139 00a6 0DD0     		beq	.L7
 180:Drivers/STM32F1xx_HAL_Driver/Src/stm32f1xx_hal_adc_ex.c ****         {
 181:Drivers/STM32F1xx_HAL_Driver/Src/stm32f1xx_hal_adc_ex.c ****           /* Update ADC state machine to error */
 182:Drivers/STM32F1xx_HAL_Driver/Src/stm32f1xx_hal_adc_ex.c ****           ADC_STATE_CLR_SET(hadc->State,
 140              		.loc 1 182 11
 141 00a8 7B68     		ldr	r3, [r7, #4]
 142 00aa 9B6A     		ldr	r3, [r3, #40]
 143 00ac 23F01203 		bic	r3, r3, #18
 144 00b0 43F01002 		orr	r2, r3, #16
 145 00b4 7B68     		ldr	r3, [r7, #4]
 146 00b6 9A62     		str	r2, [r3, #40]
 183:Drivers/STM32F1xx_HAL_Driver/Src/stm32f1xx_hal_adc_ex.c ****                             HAL_ADC_STATE_BUSY_INTERNAL,
 184:Drivers/STM32F1xx_HAL_Driver/Src/stm32f1xx_hal_adc_ex.c ****                             HAL_ADC_STATE_ERROR_INTERNAL);
 185:Drivers/STM32F1xx_HAL_Driver/Src/stm32f1xx_hal_adc_ex.c **** 
 186:Drivers/STM32F1xx_HAL_Driver/Src/stm32f1xx_hal_adc_ex.c ****           /* Process unlocked */
 187:Drivers/STM32F1xx_HAL_Driver/Src/stm32f1xx_hal_adc_ex.c ****           __HAL_UNLOCK(hadc);
 147              		.loc 1 187 11
 148 00b8 7B68     		ldr	r3, [r7, #4]
 149 00ba 0022     		movs	r2, #0
 150 00bc 83F82420 		strb	r2, [r3, #36]
 188:Drivers/STM32F1xx_HAL_Driver/Src/stm32f1xx_hal_adc_ex.c **** 
 189:Drivers/STM32F1xx_HAL_Driver/Src/stm32f1xx_hal_adc_ex.c ****           return HAL_ERROR;
 151              		.loc 1 189 18
ARM GAS  C:\Users\danie\AppData\Local\Temp\cczXkyFe.s 			page 7


 152 00c0 0123     		movs	r3, #1
 153 00c2 42E0     		b	.L3
 154              	.L7:
 174:Drivers/STM32F1xx_HAL_Driver/Src/stm32f1xx_hal_adc_ex.c ****     {
 155              		.loc 1 174 11
 156 00c4 7B68     		ldr	r3, [r7, #4]
 157 00c6 1B68     		ldr	r3, [r3]
 158 00c8 9B68     		ldr	r3, [r3, #8]
 159 00ca 03F00803 		and	r3, r3, #8
 174:Drivers/STM32F1xx_HAL_Driver/Src/stm32f1xx_hal_adc_ex.c ****     {
 160              		.loc 1 174 10
 161 00ce 002B     		cmp	r3, #0
 162 00d0 DCD1     		bne	.L8
 190:Drivers/STM32F1xx_HAL_Driver/Src/stm32f1xx_hal_adc_ex.c ****         }
 191:Drivers/STM32F1xx_HAL_Driver/Src/stm32f1xx_hal_adc_ex.c ****       }
 192:Drivers/STM32F1xx_HAL_Driver/Src/stm32f1xx_hal_adc_ex.c ****     }
 193:Drivers/STM32F1xx_HAL_Driver/Src/stm32f1xx_hal_adc_ex.c ****     
 194:Drivers/STM32F1xx_HAL_Driver/Src/stm32f1xx_hal_adc_ex.c ****     /* 4. Start ADC calibration */
 195:Drivers/STM32F1xx_HAL_Driver/Src/stm32f1xx_hal_adc_ex.c ****     SET_BIT(hadc->Instance->CR2, ADC_CR2_CAL);
 163              		.loc 1 195 5
 164 00d2 7B68     		ldr	r3, [r7, #4]
 165 00d4 1B68     		ldr	r3, [r3]
 166 00d6 9A68     		ldr	r2, [r3, #8]
 167 00d8 7B68     		ldr	r3, [r7, #4]
 168 00da 1B68     		ldr	r3, [r3]
 169 00dc 42F00402 		orr	r2, r2, #4
 170 00e0 9A60     		str	r2, [r3, #8]
 196:Drivers/STM32F1xx_HAL_Driver/Src/stm32f1xx_hal_adc_ex.c ****     
 197:Drivers/STM32F1xx_HAL_Driver/Src/stm32f1xx_hal_adc_ex.c ****     tickstart = HAL_GetTick();  
 171              		.loc 1 197 17
 172 00e2 FFF7FEFF 		bl	HAL_GetTick
 173 00e6 3861     		str	r0, [r7, #16]
 198:Drivers/STM32F1xx_HAL_Driver/Src/stm32f1xx_hal_adc_ex.c **** 
 199:Drivers/STM32F1xx_HAL_Driver/Src/stm32f1xx_hal_adc_ex.c ****     /* Wait for calibration completion */
 200:Drivers/STM32F1xx_HAL_Driver/Src/stm32f1xx_hal_adc_ex.c ****     while(HAL_IS_BIT_SET(hadc->Instance->CR2, ADC_CR2_CAL))
 174              		.loc 1 200 10
 175 00e8 1BE0     		b	.L9
 176              	.L10:
 201:Drivers/STM32F1xx_HAL_Driver/Src/stm32f1xx_hal_adc_ex.c ****     {
 202:Drivers/STM32F1xx_HAL_Driver/Src/stm32f1xx_hal_adc_ex.c ****       if((HAL_GetTick() - tickstart) > ADC_CALIBRATION_TIMEOUT)
 177              		.loc 1 202 11
 178 00ea FFF7FEFF 		bl	HAL_GetTick
 179 00ee 0246     		mov	r2, r0
 180              		.loc 1 202 25
 181 00f0 3B69     		ldr	r3, [r7, #16]
 182 00f2 D31A     		subs	r3, r2, r3
 183              		.loc 1 202 9
 184 00f4 0A2B     		cmp	r3, #10
 185 00f6 14D9     		bls	.L9
 203:Drivers/STM32F1xx_HAL_Driver/Src/stm32f1xx_hal_adc_ex.c ****       {
 204:Drivers/STM32F1xx_HAL_Driver/Src/stm32f1xx_hal_adc_ex.c ****         /* New check to avoid false timeout detection in case of preemption */
 205:Drivers/STM32F1xx_HAL_Driver/Src/stm32f1xx_hal_adc_ex.c ****         if(HAL_IS_BIT_SET(hadc->Instance->CR2, ADC_CR2_CAL))
 186              		.loc 1 205 12
 187 00f8 7B68     		ldr	r3, [r7, #4]
 188 00fa 1B68     		ldr	r3, [r3]
 189 00fc 9B68     		ldr	r3, [r3, #8]
 190 00fe 03F00403 		and	r3, r3, #4
ARM GAS  C:\Users\danie\AppData\Local\Temp\cczXkyFe.s 			page 8


 191              		.loc 1 205 11
 192 0102 002B     		cmp	r3, #0
 193 0104 0DD0     		beq	.L9
 206:Drivers/STM32F1xx_HAL_Driver/Src/stm32f1xx_hal_adc_ex.c ****         {
 207:Drivers/STM32F1xx_HAL_Driver/Src/stm32f1xx_hal_adc_ex.c ****           /* Update ADC state machine to error */
 208:Drivers/STM32F1xx_HAL_Driver/Src/stm32f1xx_hal_adc_ex.c ****           ADC_STATE_CLR_SET(hadc->State,
 194              		.loc 1 208 11
 195 0106 7B68     		ldr	r3, [r7, #4]
 196 0108 9B6A     		ldr	r3, [r3, #40]
 197 010a 23F01203 		bic	r3, r3, #18
 198 010e 43F01002 		orr	r2, r3, #16
 199 0112 7B68     		ldr	r3, [r7, #4]
 200 0114 9A62     		str	r2, [r3, #40]
 209:Drivers/STM32F1xx_HAL_Driver/Src/stm32f1xx_hal_adc_ex.c ****                             HAL_ADC_STATE_BUSY_INTERNAL,
 210:Drivers/STM32F1xx_HAL_Driver/Src/stm32f1xx_hal_adc_ex.c ****                             HAL_ADC_STATE_ERROR_INTERNAL);
 211:Drivers/STM32F1xx_HAL_Driver/Src/stm32f1xx_hal_adc_ex.c **** 
 212:Drivers/STM32F1xx_HAL_Driver/Src/stm32f1xx_hal_adc_ex.c ****           /* Process unlocked */
 213:Drivers/STM32F1xx_HAL_Driver/Src/stm32f1xx_hal_adc_ex.c ****           __HAL_UNLOCK(hadc);
 201              		.loc 1 213 11
 202 0116 7B68     		ldr	r3, [r7, #4]
 203 0118 0022     		movs	r2, #0
 204 011a 83F82420 		strb	r2, [r3, #36]
 214:Drivers/STM32F1xx_HAL_Driver/Src/stm32f1xx_hal_adc_ex.c **** 
 215:Drivers/STM32F1xx_HAL_Driver/Src/stm32f1xx_hal_adc_ex.c ****           return HAL_ERROR;
 205              		.loc 1 215 18
 206 011e 0123     		movs	r3, #1
 207 0120 13E0     		b	.L3
 208              	.L9:
 200:Drivers/STM32F1xx_HAL_Driver/Src/stm32f1xx_hal_adc_ex.c ****     {
 209              		.loc 1 200 11
 210 0122 7B68     		ldr	r3, [r7, #4]
 211 0124 1B68     		ldr	r3, [r3]
 212 0126 9B68     		ldr	r3, [r3, #8]
 213 0128 03F00403 		and	r3, r3, #4
 200:Drivers/STM32F1xx_HAL_Driver/Src/stm32f1xx_hal_adc_ex.c ****     {
 214              		.loc 1 200 10
 215 012c 002B     		cmp	r3, #0
 216 012e DCD1     		bne	.L10
 216:Drivers/STM32F1xx_HAL_Driver/Src/stm32f1xx_hal_adc_ex.c ****         }
 217:Drivers/STM32F1xx_HAL_Driver/Src/stm32f1xx_hal_adc_ex.c ****       }
 218:Drivers/STM32F1xx_HAL_Driver/Src/stm32f1xx_hal_adc_ex.c ****     }
 219:Drivers/STM32F1xx_HAL_Driver/Src/stm32f1xx_hal_adc_ex.c ****     
 220:Drivers/STM32F1xx_HAL_Driver/Src/stm32f1xx_hal_adc_ex.c ****     /* Set ADC state */
 221:Drivers/STM32F1xx_HAL_Driver/Src/stm32f1xx_hal_adc_ex.c ****     ADC_STATE_CLR_SET(hadc->State,
 217              		.loc 1 221 5
 218 0130 7B68     		ldr	r3, [r7, #4]
 219 0132 9B6A     		ldr	r3, [r3, #40]
 220 0134 23F00303 		bic	r3, r3, #3
 221 0138 43F00102 		orr	r2, r3, #1
 222 013c 7B68     		ldr	r3, [r7, #4]
 223 013e 9A62     		str	r2, [r3, #40]
 224              	.L4:
 222:Drivers/STM32F1xx_HAL_Driver/Src/stm32f1xx_hal_adc_ex.c ****                       HAL_ADC_STATE_BUSY_INTERNAL,
 223:Drivers/STM32F1xx_HAL_Driver/Src/stm32f1xx_hal_adc_ex.c ****                       HAL_ADC_STATE_READY);
 224:Drivers/STM32F1xx_HAL_Driver/Src/stm32f1xx_hal_adc_ex.c ****   }
 225:Drivers/STM32F1xx_HAL_Driver/Src/stm32f1xx_hal_adc_ex.c ****   
 226:Drivers/STM32F1xx_HAL_Driver/Src/stm32f1xx_hal_adc_ex.c ****   /* Process unlocked */
ARM GAS  C:\Users\danie\AppData\Local\Temp\cczXkyFe.s 			page 9


 227:Drivers/STM32F1xx_HAL_Driver/Src/stm32f1xx_hal_adc_ex.c ****   __HAL_UNLOCK(hadc);
 225              		.loc 1 227 3
 226 0140 7B68     		ldr	r3, [r7, #4]
 227 0142 0022     		movs	r2, #0
 228 0144 83F82420 		strb	r2, [r3, #36]
 228:Drivers/STM32F1xx_HAL_Driver/Src/stm32f1xx_hal_adc_ex.c ****   
 229:Drivers/STM32F1xx_HAL_Driver/Src/stm32f1xx_hal_adc_ex.c ****   /* Return function status */
 230:Drivers/STM32F1xx_HAL_Driver/Src/stm32f1xx_hal_adc_ex.c ****   return tmp_hal_status;
 229              		.loc 1 230 10
 230 0148 FB7D     		ldrb	r3, [r7, #23]	@ zero_extendqisi2
 231              	.L3:
 231:Drivers/STM32F1xx_HAL_Driver/Src/stm32f1xx_hal_adc_ex.c **** }
 232              		.loc 1 231 1
 233 014a 1846     		mov	r0, r3
 234 014c 1C37     		adds	r7, r7, #28
 235              	.LCFI3:
 236              		.cfi_def_cfa_offset 12
 237 014e BD46     		mov	sp, r7
 238              	.LCFI4:
 239              		.cfi_def_cfa_register 13
 240              		@ sp needed
 241 0150 90BD     		pop	{r4, r7, pc}
 242              	.L12:
 243 0152 00BF     		.align	2
 244              	.L11:
 245 0154 00000000 		.word	SystemCoreClock
 246              		.cfi_endproc
 247              	.LFE65:
 249              		.section	.text.HAL_ADCEx_InjectedStart,"ax",%progbits
 250              		.align	1
 251              		.global	HAL_ADCEx_InjectedStart
 252              		.syntax unified
 253              		.thumb
 254              		.thumb_func
 255              		.fpu softvfp
 257              	HAL_ADCEx_InjectedStart:
 258              	.LFB66:
 232:Drivers/STM32F1xx_HAL_Driver/Src/stm32f1xx_hal_adc_ex.c **** 
 233:Drivers/STM32F1xx_HAL_Driver/Src/stm32f1xx_hal_adc_ex.c **** /**
 234:Drivers/STM32F1xx_HAL_Driver/Src/stm32f1xx_hal_adc_ex.c ****   * @brief  Enables ADC, starts conversion of injected group.
 235:Drivers/STM32F1xx_HAL_Driver/Src/stm32f1xx_hal_adc_ex.c ****   *         Interruptions enabled in this function: None.
 236:Drivers/STM32F1xx_HAL_Driver/Src/stm32f1xx_hal_adc_ex.c ****   * @param  hadc: ADC handle
 237:Drivers/STM32F1xx_HAL_Driver/Src/stm32f1xx_hal_adc_ex.c ****   * @retval HAL status
 238:Drivers/STM32F1xx_HAL_Driver/Src/stm32f1xx_hal_adc_ex.c ****   */
 239:Drivers/STM32F1xx_HAL_Driver/Src/stm32f1xx_hal_adc_ex.c **** HAL_StatusTypeDef HAL_ADCEx_InjectedStart(ADC_HandleTypeDef* hadc)
 240:Drivers/STM32F1xx_HAL_Driver/Src/stm32f1xx_hal_adc_ex.c **** {
 259              		.loc 1 240 1
 260              		.cfi_startproc
 261              		@ args = 0, pretend = 0, frame = 16
 262              		@ frame_needed = 1, uses_anonymous_args = 0
 263 0000 80B5     		push	{r7, lr}
 264              	.LCFI5:
 265              		.cfi_def_cfa_offset 8
 266              		.cfi_offset 7, -8
 267              		.cfi_offset 14, -4
 268 0002 84B0     		sub	sp, sp, #16
 269              	.LCFI6:
ARM GAS  C:\Users\danie\AppData\Local\Temp\cczXkyFe.s 			page 10


 270              		.cfi_def_cfa_offset 24
 271 0004 00AF     		add	r7, sp, #0
 272              	.LCFI7:
 273              		.cfi_def_cfa_register 7
 274 0006 7860     		str	r0, [r7, #4]
 241:Drivers/STM32F1xx_HAL_Driver/Src/stm32f1xx_hal_adc_ex.c ****   HAL_StatusTypeDef tmp_hal_status = HAL_OK;
 275              		.loc 1 241 21
 276 0008 0023     		movs	r3, #0
 277 000a FB73     		strb	r3, [r7, #15]
 242:Drivers/STM32F1xx_HAL_Driver/Src/stm32f1xx_hal_adc_ex.c ****   
 243:Drivers/STM32F1xx_HAL_Driver/Src/stm32f1xx_hal_adc_ex.c ****   /* Check the parameters */
 244:Drivers/STM32F1xx_HAL_Driver/Src/stm32f1xx_hal_adc_ex.c ****   assert_param(IS_ADC_ALL_INSTANCE(hadc->Instance));
 245:Drivers/STM32F1xx_HAL_Driver/Src/stm32f1xx_hal_adc_ex.c ****   
 246:Drivers/STM32F1xx_HAL_Driver/Src/stm32f1xx_hal_adc_ex.c ****   /* Process locked */
 247:Drivers/STM32F1xx_HAL_Driver/Src/stm32f1xx_hal_adc_ex.c ****   __HAL_LOCK(hadc);
 278              		.loc 1 247 3
 279 000c 7B68     		ldr	r3, [r7, #4]
 280 000e 93F82430 		ldrb	r3, [r3, #36]	@ zero_extendqisi2
 281 0012 012B     		cmp	r3, #1
 282 0014 01D1     		bne	.L14
 283              		.loc 1 247 3 is_stmt 0 discriminator 1
 284 0016 0223     		movs	r3, #2
 285 0018 70E0     		b	.L15
 286              	.L14:
 287              		.loc 1 247 3 discriminator 2
 288 001a 7B68     		ldr	r3, [r7, #4]
 289 001c 0122     		movs	r2, #1
 290 001e 83F82420 		strb	r2, [r3, #36]
 248:Drivers/STM32F1xx_HAL_Driver/Src/stm32f1xx_hal_adc_ex.c ****     
 249:Drivers/STM32F1xx_HAL_Driver/Src/stm32f1xx_hal_adc_ex.c ****   /* Enable the ADC peripheral */
 250:Drivers/STM32F1xx_HAL_Driver/Src/stm32f1xx_hal_adc_ex.c ****   tmp_hal_status = ADC_Enable(hadc);
 291              		.loc 1 250 20 is_stmt 1 discriminator 2
 292 0022 7868     		ldr	r0, [r7, #4]
 293 0024 FFF7FEFF 		bl	ADC_Enable
 294 0028 0346     		mov	r3, r0
 295 002a FB73     		strb	r3, [r7, #15]
 251:Drivers/STM32F1xx_HAL_Driver/Src/stm32f1xx_hal_adc_ex.c ****   
 252:Drivers/STM32F1xx_HAL_Driver/Src/stm32f1xx_hal_adc_ex.c ****   /* Start conversion if ADC is effectively enabled */
 253:Drivers/STM32F1xx_HAL_Driver/Src/stm32f1xx_hal_adc_ex.c ****   if (tmp_hal_status == HAL_OK)
 296              		.loc 1 253 6 discriminator 2
 297 002c FB7B     		ldrb	r3, [r7, #15]	@ zero_extendqisi2
 298 002e 002B     		cmp	r3, #0
 299 0030 5FD1     		bne	.L16
 254:Drivers/STM32F1xx_HAL_Driver/Src/stm32f1xx_hal_adc_ex.c ****   {
 255:Drivers/STM32F1xx_HAL_Driver/Src/stm32f1xx_hal_adc_ex.c ****     /* Set ADC state                                                          */
 256:Drivers/STM32F1xx_HAL_Driver/Src/stm32f1xx_hal_adc_ex.c ****     /* - Clear state bitfield related to injected group conversion results    */
 257:Drivers/STM32F1xx_HAL_Driver/Src/stm32f1xx_hal_adc_ex.c ****     /* - Set state bitfield related to injected operation                     */
 258:Drivers/STM32F1xx_HAL_Driver/Src/stm32f1xx_hal_adc_ex.c ****     ADC_STATE_CLR_SET(hadc->State,
 300              		.loc 1 258 5
 301 0032 7B68     		ldr	r3, [r7, #4]
 302 0034 9B6A     		ldr	r3, [r3, #40]
 303 0036 23F44053 		bic	r3, r3, #12288
 304 003a 23F00103 		bic	r3, r3, #1
 305 003e 43F48052 		orr	r2, r3, #4096
 306 0042 7B68     		ldr	r3, [r7, #4]
 307 0044 9A62     		str	r2, [r3, #40]
 259:Drivers/STM32F1xx_HAL_Driver/Src/stm32f1xx_hal_adc_ex.c ****                       HAL_ADC_STATE_READY | HAL_ADC_STATE_INJ_EOC,
ARM GAS  C:\Users\danie\AppData\Local\Temp\cczXkyFe.s 			page 11


 260:Drivers/STM32F1xx_HAL_Driver/Src/stm32f1xx_hal_adc_ex.c ****                       HAL_ADC_STATE_INJ_BUSY);
 261:Drivers/STM32F1xx_HAL_Driver/Src/stm32f1xx_hal_adc_ex.c ****     
 262:Drivers/STM32F1xx_HAL_Driver/Src/stm32f1xx_hal_adc_ex.c ****     /* Case of independent mode or multimode (for devices with several ADCs): */
 263:Drivers/STM32F1xx_HAL_Driver/Src/stm32f1xx_hal_adc_ex.c ****     /* Set multimode state.                                                   */
 264:Drivers/STM32F1xx_HAL_Driver/Src/stm32f1xx_hal_adc_ex.c ****     if (ADC_NONMULTIMODE_OR_MULTIMODEMASTER(hadc))
 308              		.loc 1 264 9
 309 0046 7B68     		ldr	r3, [r7, #4]
 310 0048 1B68     		ldr	r3, [r3]
 311              		.loc 1 264 8
 312 004a 2E4A     		ldr	r2, .L25
 313 004c 9342     		cmp	r3, r2
 314 004e 05D1     		bne	.L17
 315              		.loc 1 264 9 discriminator 1
 316 0050 2D4B     		ldr	r3, .L25+4
 317 0052 5B68     		ldr	r3, [r3, #4]
 318 0054 03F47023 		and	r3, r3, #983040
 319 0058 002B     		cmp	r3, #0
 320 005a 06D1     		bne	.L18
 321              	.L17:
 265:Drivers/STM32F1xx_HAL_Driver/Src/stm32f1xx_hal_adc_ex.c ****     {
 266:Drivers/STM32F1xx_HAL_Driver/Src/stm32f1xx_hal_adc_ex.c ****       CLEAR_BIT(hadc->State, HAL_ADC_STATE_MULTIMODE_SLAVE);
 322              		.loc 1 266 7
 323 005c 7B68     		ldr	r3, [r7, #4]
 324 005e 9B6A     		ldr	r3, [r3, #40]
 325 0060 23F48012 		bic	r2, r3, #1048576
 326 0064 7B68     		ldr	r3, [r7, #4]
 327 0066 9A62     		str	r2, [r3, #40]
 328 0068 05E0     		b	.L19
 329              	.L18:
 267:Drivers/STM32F1xx_HAL_Driver/Src/stm32f1xx_hal_adc_ex.c ****     }
 268:Drivers/STM32F1xx_HAL_Driver/Src/stm32f1xx_hal_adc_ex.c ****     else
 269:Drivers/STM32F1xx_HAL_Driver/Src/stm32f1xx_hal_adc_ex.c ****     {
 270:Drivers/STM32F1xx_HAL_Driver/Src/stm32f1xx_hal_adc_ex.c ****       SET_BIT(hadc->State, HAL_ADC_STATE_MULTIMODE_SLAVE);
 330              		.loc 1 270 7
 331 006a 7B68     		ldr	r3, [r7, #4]
 332 006c 9B6A     		ldr	r3, [r3, #40]
 333 006e 43F48012 		orr	r2, r3, #1048576
 334 0072 7B68     		ldr	r3, [r7, #4]
 335 0074 9A62     		str	r2, [r3, #40]
 336              	.L19:
 271:Drivers/STM32F1xx_HAL_Driver/Src/stm32f1xx_hal_adc_ex.c ****     }
 272:Drivers/STM32F1xx_HAL_Driver/Src/stm32f1xx_hal_adc_ex.c ****     
 273:Drivers/STM32F1xx_HAL_Driver/Src/stm32f1xx_hal_adc_ex.c ****     /* Check if a regular conversion is ongoing */
 274:Drivers/STM32F1xx_HAL_Driver/Src/stm32f1xx_hal_adc_ex.c ****     /* Note: On this device, there is no ADC error code fields related to     */
 275:Drivers/STM32F1xx_HAL_Driver/Src/stm32f1xx_hal_adc_ex.c ****     /*       conversions on group injected only. In case of conversion on     */
 276:Drivers/STM32F1xx_HAL_Driver/Src/stm32f1xx_hal_adc_ex.c ****     /*       going on group regular, no error code is reset.                  */
 277:Drivers/STM32F1xx_HAL_Driver/Src/stm32f1xx_hal_adc_ex.c ****     if (HAL_IS_BIT_CLR(hadc->State, HAL_ADC_STATE_REG_BUSY))
 337              		.loc 1 277 9
 338 0076 7B68     		ldr	r3, [r7, #4]
 339 0078 9B6A     		ldr	r3, [r3, #40]
 340 007a 03F48073 		and	r3, r3, #256
 341              		.loc 1 277 8
 342 007e 002B     		cmp	r3, #0
 343 0080 02D1     		bne	.L20
 278:Drivers/STM32F1xx_HAL_Driver/Src/stm32f1xx_hal_adc_ex.c ****     {
 279:Drivers/STM32F1xx_HAL_Driver/Src/stm32f1xx_hal_adc_ex.c ****       /* Reset ADC all error code fields */
 280:Drivers/STM32F1xx_HAL_Driver/Src/stm32f1xx_hal_adc_ex.c ****       ADC_CLEAR_ERRORCODE(hadc);
ARM GAS  C:\Users\danie\AppData\Local\Temp\cczXkyFe.s 			page 12


 344              		.loc 1 280 7
 345 0082 7B68     		ldr	r3, [r7, #4]
 346 0084 0022     		movs	r2, #0
 347 0086 DA62     		str	r2, [r3, #44]
 348              	.L20:
 281:Drivers/STM32F1xx_HAL_Driver/Src/stm32f1xx_hal_adc_ex.c ****     }
 282:Drivers/STM32F1xx_HAL_Driver/Src/stm32f1xx_hal_adc_ex.c ****     
 283:Drivers/STM32F1xx_HAL_Driver/Src/stm32f1xx_hal_adc_ex.c ****     /* Process unlocked */
 284:Drivers/STM32F1xx_HAL_Driver/Src/stm32f1xx_hal_adc_ex.c ****     /* Unlock before starting ADC conversions: in case of potential           */
 285:Drivers/STM32F1xx_HAL_Driver/Src/stm32f1xx_hal_adc_ex.c ****     /* interruption, to let the process to ADC IRQ Handler.                   */
 286:Drivers/STM32F1xx_HAL_Driver/Src/stm32f1xx_hal_adc_ex.c ****     __HAL_UNLOCK(hadc);
 349              		.loc 1 286 5
 350 0088 7B68     		ldr	r3, [r7, #4]
 351 008a 0022     		movs	r2, #0
 352 008c 83F82420 		strb	r2, [r3, #36]
 287:Drivers/STM32F1xx_HAL_Driver/Src/stm32f1xx_hal_adc_ex.c ****     
 288:Drivers/STM32F1xx_HAL_Driver/Src/stm32f1xx_hal_adc_ex.c ****     /* Clear injected group conversion flag */
 289:Drivers/STM32F1xx_HAL_Driver/Src/stm32f1xx_hal_adc_ex.c ****     /* (To ensure of no unknown state from potential previous ADC operations) */
 290:Drivers/STM32F1xx_HAL_Driver/Src/stm32f1xx_hal_adc_ex.c ****     __HAL_ADC_CLEAR_FLAG(hadc, ADC_FLAG_JEOC);
 353              		.loc 1 290 5
 354 0090 7B68     		ldr	r3, [r7, #4]
 355 0092 1B68     		ldr	r3, [r3]
 356 0094 6FF00402 		mvn	r2, #4
 357 0098 1A60     		str	r2, [r3]
 291:Drivers/STM32F1xx_HAL_Driver/Src/stm32f1xx_hal_adc_ex.c ****         
 292:Drivers/STM32F1xx_HAL_Driver/Src/stm32f1xx_hal_adc_ex.c ****     /* Enable conversion of injected group.                                   */
 293:Drivers/STM32F1xx_HAL_Driver/Src/stm32f1xx_hal_adc_ex.c ****     /* If software start has been selected, conversion starts immediately.    */
 294:Drivers/STM32F1xx_HAL_Driver/Src/stm32f1xx_hal_adc_ex.c ****     /* If external trigger has been selected, conversion will start at next   */
 295:Drivers/STM32F1xx_HAL_Driver/Src/stm32f1xx_hal_adc_ex.c ****     /* trigger event.                                                         */
 296:Drivers/STM32F1xx_HAL_Driver/Src/stm32f1xx_hal_adc_ex.c ****     /* If automatic injected conversion is enabled, conversion will start     */
 297:Drivers/STM32F1xx_HAL_Driver/Src/stm32f1xx_hal_adc_ex.c ****     /* after next regular group conversion.                                   */
 298:Drivers/STM32F1xx_HAL_Driver/Src/stm32f1xx_hal_adc_ex.c ****     /* Case of multimode enabled (for devices with several ADCs): if ADC is   */
 299:Drivers/STM32F1xx_HAL_Driver/Src/stm32f1xx_hal_adc_ex.c ****     /* slave, ADC is enabled only (conversion is not started). If ADC is      */
 300:Drivers/STM32F1xx_HAL_Driver/Src/stm32f1xx_hal_adc_ex.c ****     /* master, ADC is enabled and conversion is started.                      */
 301:Drivers/STM32F1xx_HAL_Driver/Src/stm32f1xx_hal_adc_ex.c ****     if (HAL_IS_BIT_CLR(hadc->Instance->CR1, ADC_CR1_JAUTO))
 358              		.loc 1 301 9
 359 009a 7B68     		ldr	r3, [r7, #4]
 360 009c 1B68     		ldr	r3, [r3]
 361 009e 5B68     		ldr	r3, [r3, #4]
 362 00a0 03F48063 		and	r3, r3, #1024
 363              		.loc 1 301 8
 364 00a4 002B     		cmp	r3, #0
 365 00a6 28D1     		bne	.L24
 302:Drivers/STM32F1xx_HAL_Driver/Src/stm32f1xx_hal_adc_ex.c ****     {
 303:Drivers/STM32F1xx_HAL_Driver/Src/stm32f1xx_hal_adc_ex.c ****       if (ADC_IS_SOFTWARE_START_INJECTED(hadc)     &&
 366              		.loc 1 303 11
 367 00a8 7B68     		ldr	r3, [r7, #4]
 368 00aa 1B68     		ldr	r3, [r3]
 369 00ac 9B68     		ldr	r3, [r3, #8]
 370 00ae 03F4E043 		and	r3, r3, #28672
 371              		.loc 1 303 10
 372 00b2 B3F5E04F 		cmp	r3, #28672
 373 00b6 13D1     		bne	.L22
 304:Drivers/STM32F1xx_HAL_Driver/Src/stm32f1xx_hal_adc_ex.c ****           ADC_NONMULTIMODE_OR_MULTIMODEMASTER(hadc)  )
 374              		.loc 1 304 11 discriminator 1
 375 00b8 7B68     		ldr	r3, [r7, #4]
 376 00ba 1B68     		ldr	r3, [r3]
ARM GAS  C:\Users\danie\AppData\Local\Temp\cczXkyFe.s 			page 13


 303:Drivers/STM32F1xx_HAL_Driver/Src/stm32f1xx_hal_adc_ex.c ****           ADC_NONMULTIMODE_OR_MULTIMODEMASTER(hadc)  )
 377              		.loc 1 303 52 discriminator 1
 378 00bc 114A     		ldr	r2, .L25
 379 00be 9342     		cmp	r3, r2
 380 00c0 05D1     		bne	.L23
 381              		.loc 1 304 11 discriminator 2
 382 00c2 114B     		ldr	r3, .L25+4
 383 00c4 5B68     		ldr	r3, [r3, #4]
 384 00c6 03F47023 		and	r3, r3, #983040
 303:Drivers/STM32F1xx_HAL_Driver/Src/stm32f1xx_hal_adc_ex.c ****           ADC_NONMULTIMODE_OR_MULTIMODEMASTER(hadc)  )
 385              		.loc 1 303 52 discriminator 2
 386 00ca 002B     		cmp	r3, #0
 387 00cc 08D1     		bne	.L22
 388              	.L23:
 305:Drivers/STM32F1xx_HAL_Driver/Src/stm32f1xx_hal_adc_ex.c ****       {
 306:Drivers/STM32F1xx_HAL_Driver/Src/stm32f1xx_hal_adc_ex.c ****         /* Start ADC conversion on injected group with SW start */
 307:Drivers/STM32F1xx_HAL_Driver/Src/stm32f1xx_hal_adc_ex.c ****         SET_BIT(hadc->Instance->CR2, (ADC_CR2_JSWSTART | ADC_CR2_JEXTTRIG));
 389              		.loc 1 307 9
 390 00ce 7B68     		ldr	r3, [r7, #4]
 391 00d0 1B68     		ldr	r3, [r3]
 392 00d2 9A68     		ldr	r2, [r3, #8]
 393 00d4 7B68     		ldr	r3, [r7, #4]
 394 00d6 1B68     		ldr	r3, [r3]
 395 00d8 42F40212 		orr	r2, r2, #2129920
 396 00dc 9A60     		str	r2, [r3, #8]
 397 00de 0CE0     		b	.L24
 398              	.L22:
 308:Drivers/STM32F1xx_HAL_Driver/Src/stm32f1xx_hal_adc_ex.c ****       }
 309:Drivers/STM32F1xx_HAL_Driver/Src/stm32f1xx_hal_adc_ex.c ****       else
 310:Drivers/STM32F1xx_HAL_Driver/Src/stm32f1xx_hal_adc_ex.c ****       {
 311:Drivers/STM32F1xx_HAL_Driver/Src/stm32f1xx_hal_adc_ex.c ****         /* Start ADC conversion on injected group with external trigger */
 312:Drivers/STM32F1xx_HAL_Driver/Src/stm32f1xx_hal_adc_ex.c ****         SET_BIT(hadc->Instance->CR2, ADC_CR2_JEXTTRIG);
 399              		.loc 1 312 9
 400 00e0 7B68     		ldr	r3, [r7, #4]
 401 00e2 1B68     		ldr	r3, [r3]
 402 00e4 9A68     		ldr	r2, [r3, #8]
 403 00e6 7B68     		ldr	r3, [r7, #4]
 404 00e8 1B68     		ldr	r3, [r3]
 405 00ea 42F40042 		orr	r2, r2, #32768
 406 00ee 9A60     		str	r2, [r3, #8]
 407 00f0 03E0     		b	.L24
 408              	.L16:
 313:Drivers/STM32F1xx_HAL_Driver/Src/stm32f1xx_hal_adc_ex.c ****       }
 314:Drivers/STM32F1xx_HAL_Driver/Src/stm32f1xx_hal_adc_ex.c ****     }
 315:Drivers/STM32F1xx_HAL_Driver/Src/stm32f1xx_hal_adc_ex.c ****   }
 316:Drivers/STM32F1xx_HAL_Driver/Src/stm32f1xx_hal_adc_ex.c ****   else
 317:Drivers/STM32F1xx_HAL_Driver/Src/stm32f1xx_hal_adc_ex.c ****   {
 318:Drivers/STM32F1xx_HAL_Driver/Src/stm32f1xx_hal_adc_ex.c ****     /* Process unlocked */
 319:Drivers/STM32F1xx_HAL_Driver/Src/stm32f1xx_hal_adc_ex.c ****     __HAL_UNLOCK(hadc);
 409              		.loc 1 319 5
 410 00f2 7B68     		ldr	r3, [r7, #4]
 411 00f4 0022     		movs	r2, #0
 412 00f6 83F82420 		strb	r2, [r3, #36]
 413              	.L24:
 320:Drivers/STM32F1xx_HAL_Driver/Src/stm32f1xx_hal_adc_ex.c ****   }
 321:Drivers/STM32F1xx_HAL_Driver/Src/stm32f1xx_hal_adc_ex.c ****   
 322:Drivers/STM32F1xx_HAL_Driver/Src/stm32f1xx_hal_adc_ex.c ****   /* Return function status */
ARM GAS  C:\Users\danie\AppData\Local\Temp\cczXkyFe.s 			page 14


 323:Drivers/STM32F1xx_HAL_Driver/Src/stm32f1xx_hal_adc_ex.c ****   return tmp_hal_status;
 414              		.loc 1 323 10
 415 00fa FB7B     		ldrb	r3, [r7, #15]	@ zero_extendqisi2
 416              	.L15:
 324:Drivers/STM32F1xx_HAL_Driver/Src/stm32f1xx_hal_adc_ex.c **** }
 417              		.loc 1 324 1
 418 00fc 1846     		mov	r0, r3
 419 00fe 1037     		adds	r7, r7, #16
 420              	.LCFI8:
 421              		.cfi_def_cfa_offset 8
 422 0100 BD46     		mov	sp, r7
 423              	.LCFI9:
 424              		.cfi_def_cfa_register 13
 425              		@ sp needed
 426 0102 80BD     		pop	{r7, pc}
 427              	.L26:
 428              		.align	2
 429              	.L25:
 430 0104 00280140 		.word	1073817600
 431 0108 00240140 		.word	1073816576
 432              		.cfi_endproc
 433              	.LFE66:
 435              		.section	.text.HAL_ADCEx_InjectedStop,"ax",%progbits
 436              		.align	1
 437              		.global	HAL_ADCEx_InjectedStop
 438              		.syntax unified
 439              		.thumb
 440              		.thumb_func
 441              		.fpu softvfp
 443              	HAL_ADCEx_InjectedStop:
 444              	.LFB67:
 325:Drivers/STM32F1xx_HAL_Driver/Src/stm32f1xx_hal_adc_ex.c **** 
 326:Drivers/STM32F1xx_HAL_Driver/Src/stm32f1xx_hal_adc_ex.c **** /**
 327:Drivers/STM32F1xx_HAL_Driver/Src/stm32f1xx_hal_adc_ex.c ****   * @brief  Stop conversion of injected channels. Disable ADC peripheral if
 328:Drivers/STM32F1xx_HAL_Driver/Src/stm32f1xx_hal_adc_ex.c ****   *         no regular conversion is on going.
 329:Drivers/STM32F1xx_HAL_Driver/Src/stm32f1xx_hal_adc_ex.c ****   * @note   If ADC must be disabled and if conversion is on going on 
 330:Drivers/STM32F1xx_HAL_Driver/Src/stm32f1xx_hal_adc_ex.c ****   *         regular group, function HAL_ADC_Stop must be used to stop both
 331:Drivers/STM32F1xx_HAL_Driver/Src/stm32f1xx_hal_adc_ex.c ****   *         injected and regular groups, and disable the ADC.
 332:Drivers/STM32F1xx_HAL_Driver/Src/stm32f1xx_hal_adc_ex.c ****   * @note   If injected group mode auto-injection is enabled,
 333:Drivers/STM32F1xx_HAL_Driver/Src/stm32f1xx_hal_adc_ex.c ****   *         function HAL_ADC_Stop must be used.
 334:Drivers/STM32F1xx_HAL_Driver/Src/stm32f1xx_hal_adc_ex.c ****   * @note   In case of auto-injection mode, HAL_ADC_Stop must be used.
 335:Drivers/STM32F1xx_HAL_Driver/Src/stm32f1xx_hal_adc_ex.c ****   * @param  hadc: ADC handle
 336:Drivers/STM32F1xx_HAL_Driver/Src/stm32f1xx_hal_adc_ex.c ****   * @retval None
 337:Drivers/STM32F1xx_HAL_Driver/Src/stm32f1xx_hal_adc_ex.c ****   */
 338:Drivers/STM32F1xx_HAL_Driver/Src/stm32f1xx_hal_adc_ex.c **** HAL_StatusTypeDef HAL_ADCEx_InjectedStop(ADC_HandleTypeDef* hadc)
 339:Drivers/STM32F1xx_HAL_Driver/Src/stm32f1xx_hal_adc_ex.c **** {
 445              		.loc 1 339 1
 446              		.cfi_startproc
 447              		@ args = 0, pretend = 0, frame = 16
 448              		@ frame_needed = 1, uses_anonymous_args = 0
 449 0000 80B5     		push	{r7, lr}
 450              	.LCFI10:
 451              		.cfi_def_cfa_offset 8
 452              		.cfi_offset 7, -8
 453              		.cfi_offset 14, -4
 454 0002 84B0     		sub	sp, sp, #16
 455              	.LCFI11:
ARM GAS  C:\Users\danie\AppData\Local\Temp\cczXkyFe.s 			page 15


 456              		.cfi_def_cfa_offset 24
 457 0004 00AF     		add	r7, sp, #0
 458              	.LCFI12:
 459              		.cfi_def_cfa_register 7
 460 0006 7860     		str	r0, [r7, #4]
 340:Drivers/STM32F1xx_HAL_Driver/Src/stm32f1xx_hal_adc_ex.c ****   HAL_StatusTypeDef tmp_hal_status = HAL_OK;
 461              		.loc 1 340 21
 462 0008 0023     		movs	r3, #0
 463 000a FB73     		strb	r3, [r7, #15]
 341:Drivers/STM32F1xx_HAL_Driver/Src/stm32f1xx_hal_adc_ex.c ****   
 342:Drivers/STM32F1xx_HAL_Driver/Src/stm32f1xx_hal_adc_ex.c ****   /* Check the parameters */
 343:Drivers/STM32F1xx_HAL_Driver/Src/stm32f1xx_hal_adc_ex.c ****   assert_param(IS_ADC_ALL_INSTANCE(hadc->Instance));
 344:Drivers/STM32F1xx_HAL_Driver/Src/stm32f1xx_hal_adc_ex.c **** 
 345:Drivers/STM32F1xx_HAL_Driver/Src/stm32f1xx_hal_adc_ex.c ****   /* Process locked */
 346:Drivers/STM32F1xx_HAL_Driver/Src/stm32f1xx_hal_adc_ex.c ****   __HAL_LOCK(hadc);
 464              		.loc 1 346 3
 465 000c 7B68     		ldr	r3, [r7, #4]
 466 000e 93F82430 		ldrb	r3, [r3, #36]	@ zero_extendqisi2
 467 0012 012B     		cmp	r3, #1
 468 0014 01D1     		bne	.L28
 469              		.loc 1 346 3 is_stmt 0 discriminator 1
 470 0016 0223     		movs	r3, #2
 471 0018 30E0     		b	.L29
 472              	.L28:
 473              		.loc 1 346 3 discriminator 2
 474 001a 7B68     		ldr	r3, [r7, #4]
 475 001c 0122     		movs	r2, #1
 476 001e 83F82420 		strb	r2, [r3, #36]
 347:Drivers/STM32F1xx_HAL_Driver/Src/stm32f1xx_hal_adc_ex.c ****     
 348:Drivers/STM32F1xx_HAL_Driver/Src/stm32f1xx_hal_adc_ex.c ****   /* Stop potential conversion and disable ADC peripheral                     */
 349:Drivers/STM32F1xx_HAL_Driver/Src/stm32f1xx_hal_adc_ex.c ****   /* Conditioned to:                                                          */
 350:Drivers/STM32F1xx_HAL_Driver/Src/stm32f1xx_hal_adc_ex.c ****   /* - No conversion on the other group (regular group) is intended to        */
 351:Drivers/STM32F1xx_HAL_Driver/Src/stm32f1xx_hal_adc_ex.c ****   /*   continue (injected and regular groups stop conversion and ADC disable  */
 352:Drivers/STM32F1xx_HAL_Driver/Src/stm32f1xx_hal_adc_ex.c ****   /*   are common)                                                            */
 353:Drivers/STM32F1xx_HAL_Driver/Src/stm32f1xx_hal_adc_ex.c ****   /* - In case of auto-injection mode, HAL_ADC_Stop must be used.             */
 354:Drivers/STM32F1xx_HAL_Driver/Src/stm32f1xx_hal_adc_ex.c ****   if(((hadc->State & HAL_ADC_STATE_REG_BUSY) == RESET)  &&
 477              		.loc 1 354 12 is_stmt 1 discriminator 2
 478 0022 7B68     		ldr	r3, [r7, #4]
 479 0024 9B6A     		ldr	r3, [r3, #40]
 480              		.loc 1 354 20 discriminator 2
 481 0026 03F48073 		and	r3, r3, #256
 482              		.loc 1 354 5 discriminator 2
 483 002a 002B     		cmp	r3, #0
 484 002c 19D1     		bne	.L30
 355:Drivers/STM32F1xx_HAL_Driver/Src/stm32f1xx_hal_adc_ex.c ****      HAL_IS_BIT_CLR(hadc->Instance->CR1, ADC_CR1_JAUTO)   )
 485              		.loc 1 355 6 discriminator 1
 486 002e 7B68     		ldr	r3, [r7, #4]
 487 0030 1B68     		ldr	r3, [r3]
 488 0032 5B68     		ldr	r3, [r3, #4]
 489 0034 03F48063 		and	r3, r3, #1024
 354:Drivers/STM32F1xx_HAL_Driver/Src/stm32f1xx_hal_adc_ex.c ****      HAL_IS_BIT_CLR(hadc->Instance->CR1, ADC_CR1_JAUTO)   )
 490              		.loc 1 354 57 discriminator 1
 491 0038 002B     		cmp	r3, #0
 492 003a 12D1     		bne	.L30
 356:Drivers/STM32F1xx_HAL_Driver/Src/stm32f1xx_hal_adc_ex.c ****   {
 357:Drivers/STM32F1xx_HAL_Driver/Src/stm32f1xx_hal_adc_ex.c ****     /* Stop potential conversion on going, on regular and injected groups */
 358:Drivers/STM32F1xx_HAL_Driver/Src/stm32f1xx_hal_adc_ex.c ****     /* Disable ADC peripheral */
ARM GAS  C:\Users\danie\AppData\Local\Temp\cczXkyFe.s 			page 16


 359:Drivers/STM32F1xx_HAL_Driver/Src/stm32f1xx_hal_adc_ex.c ****     tmp_hal_status = ADC_ConversionStop_Disable(hadc);
 493              		.loc 1 359 22
 494 003c 7868     		ldr	r0, [r7, #4]
 495 003e FFF7FEFF 		bl	ADC_ConversionStop_Disable
 496 0042 0346     		mov	r3, r0
 497 0044 FB73     		strb	r3, [r7, #15]
 360:Drivers/STM32F1xx_HAL_Driver/Src/stm32f1xx_hal_adc_ex.c ****     
 361:Drivers/STM32F1xx_HAL_Driver/Src/stm32f1xx_hal_adc_ex.c ****     /* Check if ADC is effectively disabled */
 362:Drivers/STM32F1xx_HAL_Driver/Src/stm32f1xx_hal_adc_ex.c ****     if (tmp_hal_status == HAL_OK)
 498              		.loc 1 362 8
 499 0046 FB7B     		ldrb	r3, [r7, #15]	@ zero_extendqisi2
 500 0048 002B     		cmp	r3, #0
 501 004a 12D1     		bne	.L32
 363:Drivers/STM32F1xx_HAL_Driver/Src/stm32f1xx_hal_adc_ex.c ****     {
 364:Drivers/STM32F1xx_HAL_Driver/Src/stm32f1xx_hal_adc_ex.c ****       /* Set ADC state */
 365:Drivers/STM32F1xx_HAL_Driver/Src/stm32f1xx_hal_adc_ex.c ****       ADC_STATE_CLR_SET(hadc->State,
 502              		.loc 1 365 7
 503 004c 7B68     		ldr	r3, [r7, #4]
 504 004e 9B6A     		ldr	r3, [r3, #40]
 505 0050 23F48853 		bic	r3, r3, #4352
 506 0054 23F00103 		bic	r3, r3, #1
 507 0058 43F00102 		orr	r2, r3, #1
 508 005c 7B68     		ldr	r3, [r7, #4]
 509 005e 9A62     		str	r2, [r3, #40]
 362:Drivers/STM32F1xx_HAL_Driver/Src/stm32f1xx_hal_adc_ex.c ****     {
 510              		.loc 1 362 8
 511 0060 07E0     		b	.L32
 512              	.L30:
 366:Drivers/STM32F1xx_HAL_Driver/Src/stm32f1xx_hal_adc_ex.c ****                         HAL_ADC_STATE_REG_BUSY | HAL_ADC_STATE_INJ_BUSY,
 367:Drivers/STM32F1xx_HAL_Driver/Src/stm32f1xx_hal_adc_ex.c ****                         HAL_ADC_STATE_READY);
 368:Drivers/STM32F1xx_HAL_Driver/Src/stm32f1xx_hal_adc_ex.c ****     }
 369:Drivers/STM32F1xx_HAL_Driver/Src/stm32f1xx_hal_adc_ex.c ****   }
 370:Drivers/STM32F1xx_HAL_Driver/Src/stm32f1xx_hal_adc_ex.c ****   else
 371:Drivers/STM32F1xx_HAL_Driver/Src/stm32f1xx_hal_adc_ex.c ****   {
 372:Drivers/STM32F1xx_HAL_Driver/Src/stm32f1xx_hal_adc_ex.c ****     /* Update ADC state machine to error */
 373:Drivers/STM32F1xx_HAL_Driver/Src/stm32f1xx_hal_adc_ex.c ****     SET_BIT(hadc->State, HAL_ADC_STATE_ERROR_CONFIG);
 513              		.loc 1 373 5
 514 0062 7B68     		ldr	r3, [r7, #4]
 515 0064 9B6A     		ldr	r3, [r3, #40]
 516 0066 43F02002 		orr	r2, r3, #32
 517 006a 7B68     		ldr	r3, [r7, #4]
 518 006c 9A62     		str	r2, [r3, #40]
 374:Drivers/STM32F1xx_HAL_Driver/Src/stm32f1xx_hal_adc_ex.c ****       
 375:Drivers/STM32F1xx_HAL_Driver/Src/stm32f1xx_hal_adc_ex.c ****     tmp_hal_status = HAL_ERROR;
 519              		.loc 1 375 20
 520 006e 0123     		movs	r3, #1
 521 0070 FB73     		strb	r3, [r7, #15]
 522              	.L32:
 376:Drivers/STM32F1xx_HAL_Driver/Src/stm32f1xx_hal_adc_ex.c ****   }
 377:Drivers/STM32F1xx_HAL_Driver/Src/stm32f1xx_hal_adc_ex.c ****   
 378:Drivers/STM32F1xx_HAL_Driver/Src/stm32f1xx_hal_adc_ex.c ****   /* Process unlocked */
 379:Drivers/STM32F1xx_HAL_Driver/Src/stm32f1xx_hal_adc_ex.c ****   __HAL_UNLOCK(hadc);
 523              		.loc 1 379 3
 524 0072 7B68     		ldr	r3, [r7, #4]
 525 0074 0022     		movs	r2, #0
 526 0076 83F82420 		strb	r2, [r3, #36]
 380:Drivers/STM32F1xx_HAL_Driver/Src/stm32f1xx_hal_adc_ex.c ****   
ARM GAS  C:\Users\danie\AppData\Local\Temp\cczXkyFe.s 			page 17


 381:Drivers/STM32F1xx_HAL_Driver/Src/stm32f1xx_hal_adc_ex.c ****   /* Return function status */
 382:Drivers/STM32F1xx_HAL_Driver/Src/stm32f1xx_hal_adc_ex.c ****   return tmp_hal_status;
 527              		.loc 1 382 10
 528 007a FB7B     		ldrb	r3, [r7, #15]	@ zero_extendqisi2
 529              	.L29:
 383:Drivers/STM32F1xx_HAL_Driver/Src/stm32f1xx_hal_adc_ex.c **** }
 530              		.loc 1 383 1
 531 007c 1846     		mov	r0, r3
 532 007e 1037     		adds	r7, r7, #16
 533              	.LCFI13:
 534              		.cfi_def_cfa_offset 8
 535 0080 BD46     		mov	sp, r7
 536              	.LCFI14:
 537              		.cfi_def_cfa_register 13
 538              		@ sp needed
 539 0082 80BD     		pop	{r7, pc}
 540              		.cfi_endproc
 541              	.LFE67:
 543              		.section	.text.HAL_ADCEx_InjectedPollForConversion,"ax",%progbits
 544              		.align	1
 545              		.global	HAL_ADCEx_InjectedPollForConversion
 546              		.syntax unified
 547              		.thumb
 548              		.thumb_func
 549              		.fpu softvfp
 551              	HAL_ADCEx_InjectedPollForConversion:
 552              	.LFB68:
 384:Drivers/STM32F1xx_HAL_Driver/Src/stm32f1xx_hal_adc_ex.c **** 
 385:Drivers/STM32F1xx_HAL_Driver/Src/stm32f1xx_hal_adc_ex.c **** /**
 386:Drivers/STM32F1xx_HAL_Driver/Src/stm32f1xx_hal_adc_ex.c ****   * @brief  Wait for injected group conversion to be completed.
 387:Drivers/STM32F1xx_HAL_Driver/Src/stm32f1xx_hal_adc_ex.c ****   * @param  hadc: ADC handle
 388:Drivers/STM32F1xx_HAL_Driver/Src/stm32f1xx_hal_adc_ex.c ****   * @param  Timeout: Timeout value in millisecond.
 389:Drivers/STM32F1xx_HAL_Driver/Src/stm32f1xx_hal_adc_ex.c ****   * @retval HAL status
 390:Drivers/STM32F1xx_HAL_Driver/Src/stm32f1xx_hal_adc_ex.c ****   */
 391:Drivers/STM32F1xx_HAL_Driver/Src/stm32f1xx_hal_adc_ex.c **** HAL_StatusTypeDef HAL_ADCEx_InjectedPollForConversion(ADC_HandleTypeDef* hadc, uint32_t Timeout)
 392:Drivers/STM32F1xx_HAL_Driver/Src/stm32f1xx_hal_adc_ex.c **** {
 553              		.loc 1 392 1
 554              		.cfi_startproc
 555              		@ args = 0, pretend = 0, frame = 24
 556              		@ frame_needed = 1, uses_anonymous_args = 0
 557 0000 90B5     		push	{r4, r7, lr}
 558              	.LCFI15:
 559              		.cfi_def_cfa_offset 12
 560              		.cfi_offset 4, -12
 561              		.cfi_offset 7, -8
 562              		.cfi_offset 14, -4
 563 0002 87B0     		sub	sp, sp, #28
 564              	.LCFI16:
 565              		.cfi_def_cfa_offset 40
 566 0004 00AF     		add	r7, sp, #0
 567              	.LCFI17:
 568              		.cfi_def_cfa_register 7
 569 0006 7860     		str	r0, [r7, #4]
 570 0008 3960     		str	r1, [r7]
 393:Drivers/STM32F1xx_HAL_Driver/Src/stm32f1xx_hal_adc_ex.c ****   uint32_t tickstart;
 394:Drivers/STM32F1xx_HAL_Driver/Src/stm32f1xx_hal_adc_ex.c **** 
 395:Drivers/STM32F1xx_HAL_Driver/Src/stm32f1xx_hal_adc_ex.c ****   /* Variables for polling in case of scan mode enabled and polling for each  */
ARM GAS  C:\Users\danie\AppData\Local\Temp\cczXkyFe.s 			page 18


 396:Drivers/STM32F1xx_HAL_Driver/Src/stm32f1xx_hal_adc_ex.c ****   /* conversion.                                                              */
 397:Drivers/STM32F1xx_HAL_Driver/Src/stm32f1xx_hal_adc_ex.c ****   __IO uint32_t Conversion_Timeout_CPU_cycles = 0U;
 571              		.loc 1 397 17
 572 000a 0023     		movs	r3, #0
 573 000c FB60     		str	r3, [r7, #12]
 398:Drivers/STM32F1xx_HAL_Driver/Src/stm32f1xx_hal_adc_ex.c ****   uint32_t Conversion_Timeout_CPU_cycles_max = 0U;
 574              		.loc 1 398 12
 575 000e 0023     		movs	r3, #0
 576 0010 7B61     		str	r3, [r7, #20]
 399:Drivers/STM32F1xx_HAL_Driver/Src/stm32f1xx_hal_adc_ex.c ****   
 400:Drivers/STM32F1xx_HAL_Driver/Src/stm32f1xx_hal_adc_ex.c ****   /* Check the parameters */
 401:Drivers/STM32F1xx_HAL_Driver/Src/stm32f1xx_hal_adc_ex.c ****   assert_param(IS_ADC_ALL_INSTANCE(hadc->Instance));
 402:Drivers/STM32F1xx_HAL_Driver/Src/stm32f1xx_hal_adc_ex.c **** 
 403:Drivers/STM32F1xx_HAL_Driver/Src/stm32f1xx_hal_adc_ex.c ****   /* Get timeout */
 404:Drivers/STM32F1xx_HAL_Driver/Src/stm32f1xx_hal_adc_ex.c ****   tickstart = HAL_GetTick();  
 577              		.loc 1 404 15
 578 0012 FFF7FEFF 		bl	HAL_GetTick
 579 0016 3861     		str	r0, [r7, #16]
 405:Drivers/STM32F1xx_HAL_Driver/Src/stm32f1xx_hal_adc_ex.c ****      
 406:Drivers/STM32F1xx_HAL_Driver/Src/stm32f1xx_hal_adc_ex.c ****   /* Polling for end of conversion: differentiation if single/sequence        */
 407:Drivers/STM32F1xx_HAL_Driver/Src/stm32f1xx_hal_adc_ex.c ****   /* conversion.                                                              */
 408:Drivers/STM32F1xx_HAL_Driver/Src/stm32f1xx_hal_adc_ex.c ****   /* For injected group, flag JEOC is set only at the end of the sequence,    */
 409:Drivers/STM32F1xx_HAL_Driver/Src/stm32f1xx_hal_adc_ex.c ****   /* not for each conversion within the sequence.                             */
 410:Drivers/STM32F1xx_HAL_Driver/Src/stm32f1xx_hal_adc_ex.c ****   /*  - If single conversion for injected group (scan mode disabled or        */
 411:Drivers/STM32F1xx_HAL_Driver/Src/stm32f1xx_hal_adc_ex.c ****   /*    InjectedNbrOfConversion ==1), flag JEOC is used to determine the      */
 412:Drivers/STM32F1xx_HAL_Driver/Src/stm32f1xx_hal_adc_ex.c ****   /*    conversion completion.                                                */
 413:Drivers/STM32F1xx_HAL_Driver/Src/stm32f1xx_hal_adc_ex.c ****   /*  - If sequence conversion for injected group (scan mode enabled and      */
 414:Drivers/STM32F1xx_HAL_Driver/Src/stm32f1xx_hal_adc_ex.c ****   /*    InjectedNbrOfConversion >=2), flag JEOC is set only at the end of the */
 415:Drivers/STM32F1xx_HAL_Driver/Src/stm32f1xx_hal_adc_ex.c ****   /*    sequence.                                                             */
 416:Drivers/STM32F1xx_HAL_Driver/Src/stm32f1xx_hal_adc_ex.c ****   /*    To poll for each conversion, the maximum conversion time is computed  */
 417:Drivers/STM32F1xx_HAL_Driver/Src/stm32f1xx_hal_adc_ex.c ****   /*    from ADC conversion time (selected sampling time + conversion time of */
 418:Drivers/STM32F1xx_HAL_Driver/Src/stm32f1xx_hal_adc_ex.c ****   /*    12.5 ADC clock cycles) and APB2/ADC clock prescalers (depending on    */
 419:Drivers/STM32F1xx_HAL_Driver/Src/stm32f1xx_hal_adc_ex.c ****   /*    settings, conversion time range can be from 28 to 32256 CPU cycles).  */
 420:Drivers/STM32F1xx_HAL_Driver/Src/stm32f1xx_hal_adc_ex.c ****   /*    As flag JEOC is not set after each conversion, no timeout status can  */
 421:Drivers/STM32F1xx_HAL_Driver/Src/stm32f1xx_hal_adc_ex.c ****   /*    be set.                                                               */
 422:Drivers/STM32F1xx_HAL_Driver/Src/stm32f1xx_hal_adc_ex.c ****   if ((hadc->Instance->JSQR & ADC_JSQR_JL) == RESET)
 580              		.loc 1 422 12
 581 0018 7B68     		ldr	r3, [r7, #4]
 582 001a 1B68     		ldr	r3, [r3]
 583              		.loc 1 422 22
 584 001c 9B6B     		ldr	r3, [r3, #56]
 585              		.loc 1 422 29
 586 001e 03F44013 		and	r3, r3, #3145728
 587              		.loc 1 422 6
 588 0022 002B     		cmp	r3, #0
 589 0024 2AD1     		bne	.L34
 423:Drivers/STM32F1xx_HAL_Driver/Src/stm32f1xx_hal_adc_ex.c ****   {
 424:Drivers/STM32F1xx_HAL_Driver/Src/stm32f1xx_hal_adc_ex.c ****     /* Wait until End of Conversion flag is raised */
 425:Drivers/STM32F1xx_HAL_Driver/Src/stm32f1xx_hal_adc_ex.c ****     while(HAL_IS_BIT_CLR(hadc->Instance->SR, ADC_FLAG_JEOC))
 590              		.loc 1 425 10
 591 0026 21E0     		b	.L35
 592              	.L38:
 426:Drivers/STM32F1xx_HAL_Driver/Src/stm32f1xx_hal_adc_ex.c ****     {
 427:Drivers/STM32F1xx_HAL_Driver/Src/stm32f1xx_hal_adc_ex.c ****       /* Check if timeout is disabled (set to infinite wait) */
 428:Drivers/STM32F1xx_HAL_Driver/Src/stm32f1xx_hal_adc_ex.c ****       if(Timeout != HAL_MAX_DELAY)
 593              		.loc 1 428 9
 594 0028 3B68     		ldr	r3, [r7]
ARM GAS  C:\Users\danie\AppData\Local\Temp\cczXkyFe.s 			page 19


 595 002a B3F1FF3F 		cmp	r3, #-1
 596 002e 1DD0     		beq	.L35
 429:Drivers/STM32F1xx_HAL_Driver/Src/stm32f1xx_hal_adc_ex.c ****       {
 430:Drivers/STM32F1xx_HAL_Driver/Src/stm32f1xx_hal_adc_ex.c ****         if((Timeout == 0U) || ((HAL_GetTick() - tickstart ) > Timeout))
 597              		.loc 1 430 11
 598 0030 3B68     		ldr	r3, [r7]
 599 0032 002B     		cmp	r3, #0
 600 0034 07D0     		beq	.L36
 601              		.loc 1 430 33 discriminator 1
 602 0036 FFF7FEFF 		bl	HAL_GetTick
 603 003a 0246     		mov	r2, r0
 604              		.loc 1 430 47 discriminator 1
 605 003c 3B69     		ldr	r3, [r7, #16]
 606 003e D31A     		subs	r3, r2, r3
 607              		.loc 1 430 28 discriminator 1
 608 0040 3A68     		ldr	r2, [r7]
 609 0042 9A42     		cmp	r2, r3
 610 0044 12D2     		bcs	.L35
 611              	.L36:
 431:Drivers/STM32F1xx_HAL_Driver/Src/stm32f1xx_hal_adc_ex.c ****         {
 432:Drivers/STM32F1xx_HAL_Driver/Src/stm32f1xx_hal_adc_ex.c ****           /* New check to avoid false timeout detection in case of preemption */
 433:Drivers/STM32F1xx_HAL_Driver/Src/stm32f1xx_hal_adc_ex.c ****           if(HAL_IS_BIT_CLR(hadc->Instance->SR, ADC_FLAG_JEOC))
 612              		.loc 1 433 14
 613 0046 7B68     		ldr	r3, [r7, #4]
 614 0048 1B68     		ldr	r3, [r3]
 615 004a 1B68     		ldr	r3, [r3]
 616 004c 03F00403 		and	r3, r3, #4
 617              		.loc 1 433 13
 618 0050 002B     		cmp	r3, #0
 619 0052 0BD1     		bne	.L35
 434:Drivers/STM32F1xx_HAL_Driver/Src/stm32f1xx_hal_adc_ex.c ****           {
 435:Drivers/STM32F1xx_HAL_Driver/Src/stm32f1xx_hal_adc_ex.c ****             /* Update ADC state machine to timeout */
 436:Drivers/STM32F1xx_HAL_Driver/Src/stm32f1xx_hal_adc_ex.c ****             SET_BIT(hadc->State, HAL_ADC_STATE_TIMEOUT);
 620              		.loc 1 436 13
 621 0054 7B68     		ldr	r3, [r7, #4]
 622 0056 9B6A     		ldr	r3, [r3, #40]
 623 0058 43F00402 		orr	r2, r3, #4
 624 005c 7B68     		ldr	r3, [r7, #4]
 625 005e 9A62     		str	r2, [r3, #40]
 437:Drivers/STM32F1xx_HAL_Driver/Src/stm32f1xx_hal_adc_ex.c **** 
 438:Drivers/STM32F1xx_HAL_Driver/Src/stm32f1xx_hal_adc_ex.c ****             /* Process unlocked */
 439:Drivers/STM32F1xx_HAL_Driver/Src/stm32f1xx_hal_adc_ex.c ****             __HAL_UNLOCK(hadc);
 626              		.loc 1 439 13
 627 0060 7B68     		ldr	r3, [r7, #4]
 628 0062 0022     		movs	r2, #0
 629 0064 83F82420 		strb	r2, [r3, #36]
 440:Drivers/STM32F1xx_HAL_Driver/Src/stm32f1xx_hal_adc_ex.c **** 
 441:Drivers/STM32F1xx_HAL_Driver/Src/stm32f1xx_hal_adc_ex.c ****             return HAL_TIMEOUT;
 630              		.loc 1 441 20
 631 0068 0323     		movs	r3, #3
 632 006a B1E0     		b	.L37
 633              	.L35:
 425:Drivers/STM32F1xx_HAL_Driver/Src/stm32f1xx_hal_adc_ex.c ****     {
 634              		.loc 1 425 11
 635 006c 7B68     		ldr	r3, [r7, #4]
 636 006e 1B68     		ldr	r3, [r3]
 637 0070 1B68     		ldr	r3, [r3]
ARM GAS  C:\Users\danie\AppData\Local\Temp\cczXkyFe.s 			page 20


 638 0072 03F00403 		and	r3, r3, #4
 425:Drivers/STM32F1xx_HAL_Driver/Src/stm32f1xx_hal_adc_ex.c ****     {
 639              		.loc 1 425 10
 640 0076 002B     		cmp	r3, #0
 641 0078 D6D0     		beq	.L38
 642 007a 70E0     		b	.L39
 643              	.L34:
 442:Drivers/STM32F1xx_HAL_Driver/Src/stm32f1xx_hal_adc_ex.c ****           }
 443:Drivers/STM32F1xx_HAL_Driver/Src/stm32f1xx_hal_adc_ex.c ****         }
 444:Drivers/STM32F1xx_HAL_Driver/Src/stm32f1xx_hal_adc_ex.c ****       }
 445:Drivers/STM32F1xx_HAL_Driver/Src/stm32f1xx_hal_adc_ex.c ****     }
 446:Drivers/STM32F1xx_HAL_Driver/Src/stm32f1xx_hal_adc_ex.c ****   }
 447:Drivers/STM32F1xx_HAL_Driver/Src/stm32f1xx_hal_adc_ex.c ****   else
 448:Drivers/STM32F1xx_HAL_Driver/Src/stm32f1xx_hal_adc_ex.c ****   {
 449:Drivers/STM32F1xx_HAL_Driver/Src/stm32f1xx_hal_adc_ex.c ****     /* Replace polling by wait for maximum conversion time */
 450:Drivers/STM32F1xx_HAL_Driver/Src/stm32f1xx_hal_adc_ex.c ****     /*  - Computation of CPU clock cycles corresponding to ADC clock cycles   */
 451:Drivers/STM32F1xx_HAL_Driver/Src/stm32f1xx_hal_adc_ex.c ****     /*    and ADC maximum conversion cycles on all channels.                  */
 452:Drivers/STM32F1xx_HAL_Driver/Src/stm32f1xx_hal_adc_ex.c ****     /*  - Wait for the expected ADC clock cycles delay                        */
 453:Drivers/STM32F1xx_HAL_Driver/Src/stm32f1xx_hal_adc_ex.c ****     Conversion_Timeout_CPU_cycles_max = ((SystemCoreClock
 454:Drivers/STM32F1xx_HAL_Driver/Src/stm32f1xx_hal_adc_ex.c ****                                           / HAL_RCCEx_GetPeriphCLKFreq(RCC_PERIPHCLK_ADC))
 644              		.loc 1 454 43
 645 007c 564B     		ldr	r3, .L54
 646 007e 1C68     		ldr	r4, [r3]
 647              		.loc 1 454 45
 648 0080 0220     		movs	r0, #2
 649 0082 FFF7FEFF 		bl	HAL_RCCEx_GetPeriphCLKFreq
 650 0086 0346     		mov	r3, r0
 651              		.loc 1 454 43
 652 0088 B4FBF3F2 		udiv	r2, r4, r3
 455:Drivers/STM32F1xx_HAL_Driver/Src/stm32f1xx_hal_adc_ex.c ****                                          * ADC_CONVCYCLES_MAX_RANGE(hadc)                 );
 653              		.loc 1 455 44
 654 008c 7B68     		ldr	r3, [r7, #4]
 655 008e 1B68     		ldr	r3, [r3]
 656 0090 1969     		ldr	r1, [r3, #16]
 657 0092 524B     		ldr	r3, .L54+4
 658 0094 0B40     		ands	r3, r3, r1
 659 0096 002B     		cmp	r3, #0
 660 0098 18D1     		bne	.L40
 661              		.loc 1 455 44 is_stmt 0 discriminator 1
 662 009a 7B68     		ldr	r3, [r7, #4]
 663 009c 1B68     		ldr	r3, [r3]
 664 009e D968     		ldr	r1, [r3, #12]
 665 00a0 4F4B     		ldr	r3, .L54+8
 666 00a2 0B40     		ands	r3, r3, r1
 667 00a4 002B     		cmp	r3, #0
 668 00a6 11D1     		bne	.L40
 669              		.loc 1 455 44 discriminator 3
 670 00a8 7B68     		ldr	r3, [r7, #4]
 671 00aa 1B68     		ldr	r3, [r3]
 672 00ac 1969     		ldr	r1, [r3, #16]
 673 00ae 4D4B     		ldr	r3, .L54+12
 674 00b0 0B40     		ands	r3, r3, r1
 675 00b2 002B     		cmp	r3, #0
 676 00b4 08D1     		bne	.L41
 677              		.loc 1 455 44 discriminator 5
 678 00b6 7B68     		ldr	r3, [r7, #4]
 679 00b8 1B68     		ldr	r3, [r3]
ARM GAS  C:\Users\danie\AppData\Local\Temp\cczXkyFe.s 			page 21


 680 00ba D968     		ldr	r1, [r3, #12]
 681 00bc 4A4B     		ldr	r3, .L54+16
 682 00be 0B40     		ands	r3, r3, r1
 683 00c0 002B     		cmp	r3, #0
 684 00c2 01D1     		bne	.L41
 685              		.loc 1 455 44 discriminator 7
 686 00c4 1423     		movs	r3, #20
 687 00c6 20E0     		b	.L43
 688              	.L41:
 689              		.loc 1 455 44 discriminator 8
 690 00c8 2923     		movs	r3, #41
 691 00ca 1EE0     		b	.L43
 692              	.L40:
 693              		.loc 1 455 44 discriminator 4
 694 00cc 7B68     		ldr	r3, [r7, #4]
 695 00ce 1B68     		ldr	r3, [r3]
 696 00d0 1969     		ldr	r1, [r3, #16]
 697 00d2 444B     		ldr	r3, .L54+12
 698 00d4 0B40     		ands	r3, r3, r1
 699 00d6 002B     		cmp	r3, #0
 700 00d8 06D1     		bne	.L44
 701              		.loc 1 455 44 discriminator 11
 702 00da 7B68     		ldr	r3, [r7, #4]
 703 00dc 1B68     		ldr	r3, [r3]
 704 00de D968     		ldr	r1, [r3, #12]
 705 00e0 414B     		ldr	r3, .L54+16
 706 00e2 0B40     		ands	r3, r3, r1
 707 00e4 002B     		cmp	r3, #0
 708 00e6 0DD0     		beq	.L45
 709              	.L44:
 710              		.loc 1 455 44 discriminator 14
 711 00e8 7B68     		ldr	r3, [r7, #4]
 712 00ea 1B68     		ldr	r3, [r3]
 713 00ec 1969     		ldr	r1, [r3, #16]
 714 00ee 3F4B     		ldr	r3, .L54+20
 715 00f0 0B40     		ands	r3, r3, r1
 716 00f2 002B     		cmp	r3, #0
 717 00f4 08D1     		bne	.L46
 718              		.loc 1 455 44 discriminator 15
 719 00f6 7B68     		ldr	r3, [r7, #4]
 720 00f8 1B68     		ldr	r3, [r3]
 721 00fa D968     		ldr	r1, [r3, #12]
 722 00fc 3B4B     		ldr	r3, .L54+20
 723 00fe 0B40     		ands	r3, r3, r1
 724 0100 002B     		cmp	r3, #0
 725 0102 01D1     		bne	.L46
 726              	.L45:
 727              		.loc 1 455 44 discriminator 17
 728 0104 5423     		movs	r3, #84
 729 0106 00E0     		b	.L43
 730              	.L46:
 731              		.loc 1 455 44 discriminator 18
 732 0108 FC23     		movs	r3, #252
 733              	.L43:
 453:Drivers/STM32F1xx_HAL_Driver/Src/stm32f1xx_hal_adc_ex.c ****                                           / HAL_RCCEx_GetPeriphCLKFreq(RCC_PERIPHCLK_ADC))
 734              		.loc 1 453 39 is_stmt 1
 735 010a 02FB03F3 		mul	r3, r2, r3
ARM GAS  C:\Users\danie\AppData\Local\Temp\cczXkyFe.s 			page 22


 736 010e 7B61     		str	r3, [r7, #20]
 456:Drivers/STM32F1xx_HAL_Driver/Src/stm32f1xx_hal_adc_ex.c ****     
 457:Drivers/STM32F1xx_HAL_Driver/Src/stm32f1xx_hal_adc_ex.c ****     while(Conversion_Timeout_CPU_cycles < Conversion_Timeout_CPU_cycles_max)
 737              		.loc 1 457 10
 738 0110 21E0     		b	.L48
 739              	.L51:
 458:Drivers/STM32F1xx_HAL_Driver/Src/stm32f1xx_hal_adc_ex.c ****     {
 459:Drivers/STM32F1xx_HAL_Driver/Src/stm32f1xx_hal_adc_ex.c ****       /* Check if timeout is disabled (set to infinite wait) */
 460:Drivers/STM32F1xx_HAL_Driver/Src/stm32f1xx_hal_adc_ex.c ****       if(Timeout != HAL_MAX_DELAY)
 740              		.loc 1 460 9
 741 0112 3B68     		ldr	r3, [r7]
 742 0114 B3F1FF3F 		cmp	r3, #-1
 743 0118 1AD0     		beq	.L49
 461:Drivers/STM32F1xx_HAL_Driver/Src/stm32f1xx_hal_adc_ex.c ****       {
 462:Drivers/STM32F1xx_HAL_Driver/Src/stm32f1xx_hal_adc_ex.c ****         if((Timeout == 0)||((HAL_GetTick() - tickstart ) > Timeout))
 744              		.loc 1 462 11
 745 011a 3B68     		ldr	r3, [r7]
 746 011c 002B     		cmp	r3, #0
 747 011e 07D0     		beq	.L50
 748              		.loc 1 462 30 discriminator 1
 749 0120 FFF7FEFF 		bl	HAL_GetTick
 750 0124 0246     		mov	r2, r0
 751              		.loc 1 462 44 discriminator 1
 752 0126 3B69     		ldr	r3, [r7, #16]
 753 0128 D31A     		subs	r3, r2, r3
 754              		.loc 1 462 26 discriminator 1
 755 012a 3A68     		ldr	r2, [r7]
 756 012c 9A42     		cmp	r2, r3
 757 012e 0FD2     		bcs	.L49
 758              	.L50:
 463:Drivers/STM32F1xx_HAL_Driver/Src/stm32f1xx_hal_adc_ex.c ****         {
 464:Drivers/STM32F1xx_HAL_Driver/Src/stm32f1xx_hal_adc_ex.c ****           /* New check to avoid false timeout detection in case of preemption */
 465:Drivers/STM32F1xx_HAL_Driver/Src/stm32f1xx_hal_adc_ex.c ****           if(Conversion_Timeout_CPU_cycles < Conversion_Timeout_CPU_cycles_max)
 759              		.loc 1 465 44
 760 0130 FB68     		ldr	r3, [r7, #12]
 761              		.loc 1 465 13
 762 0132 7A69     		ldr	r2, [r7, #20]
 763 0134 9A42     		cmp	r2, r3
 764 0136 0BD9     		bls	.L49
 466:Drivers/STM32F1xx_HAL_Driver/Src/stm32f1xx_hal_adc_ex.c ****           {
 467:Drivers/STM32F1xx_HAL_Driver/Src/stm32f1xx_hal_adc_ex.c ****             /* Update ADC state machine to timeout */
 468:Drivers/STM32F1xx_HAL_Driver/Src/stm32f1xx_hal_adc_ex.c ****             SET_BIT(hadc->State, HAL_ADC_STATE_TIMEOUT);
 765              		.loc 1 468 13
 766 0138 7B68     		ldr	r3, [r7, #4]
 767 013a 9B6A     		ldr	r3, [r3, #40]
 768 013c 43F00402 		orr	r2, r3, #4
 769 0140 7B68     		ldr	r3, [r7, #4]
 770 0142 9A62     		str	r2, [r3, #40]
 469:Drivers/STM32F1xx_HAL_Driver/Src/stm32f1xx_hal_adc_ex.c **** 
 470:Drivers/STM32F1xx_HAL_Driver/Src/stm32f1xx_hal_adc_ex.c ****             /* Process unlocked */
 471:Drivers/STM32F1xx_HAL_Driver/Src/stm32f1xx_hal_adc_ex.c ****             __HAL_UNLOCK(hadc);
 771              		.loc 1 471 13
 772 0144 7B68     		ldr	r3, [r7, #4]
 773 0146 0022     		movs	r2, #0
 774 0148 83F82420 		strb	r2, [r3, #36]
 472:Drivers/STM32F1xx_HAL_Driver/Src/stm32f1xx_hal_adc_ex.c **** 
 473:Drivers/STM32F1xx_HAL_Driver/Src/stm32f1xx_hal_adc_ex.c ****             return HAL_TIMEOUT;
ARM GAS  C:\Users\danie\AppData\Local\Temp\cczXkyFe.s 			page 23


 775              		.loc 1 473 20
 776 014c 0323     		movs	r3, #3
 777 014e 3FE0     		b	.L37
 778              	.L49:
 474:Drivers/STM32F1xx_HAL_Driver/Src/stm32f1xx_hal_adc_ex.c ****           }
 475:Drivers/STM32F1xx_HAL_Driver/Src/stm32f1xx_hal_adc_ex.c ****         }
 476:Drivers/STM32F1xx_HAL_Driver/Src/stm32f1xx_hal_adc_ex.c ****       }
 477:Drivers/STM32F1xx_HAL_Driver/Src/stm32f1xx_hal_adc_ex.c ****       Conversion_Timeout_CPU_cycles ++;
 779              		.loc 1 477 37
 780 0150 FB68     		ldr	r3, [r7, #12]
 781 0152 0133     		adds	r3, r3, #1
 782 0154 FB60     		str	r3, [r7, #12]
 783              	.L48:
 457:Drivers/STM32F1xx_HAL_Driver/Src/stm32f1xx_hal_adc_ex.c ****     {
 784              		.loc 1 457 41
 785 0156 FB68     		ldr	r3, [r7, #12]
 457:Drivers/STM32F1xx_HAL_Driver/Src/stm32f1xx_hal_adc_ex.c ****     {
 786              		.loc 1 457 10
 787 0158 7A69     		ldr	r2, [r7, #20]
 788 015a 9A42     		cmp	r2, r3
 789 015c D9D8     		bhi	.L51
 790              	.L39:
 478:Drivers/STM32F1xx_HAL_Driver/Src/stm32f1xx_hal_adc_ex.c ****     }
 479:Drivers/STM32F1xx_HAL_Driver/Src/stm32f1xx_hal_adc_ex.c ****   }
 480:Drivers/STM32F1xx_HAL_Driver/Src/stm32f1xx_hal_adc_ex.c **** 
 481:Drivers/STM32F1xx_HAL_Driver/Src/stm32f1xx_hal_adc_ex.c ****   /* Clear injected group conversion flag */
 482:Drivers/STM32F1xx_HAL_Driver/Src/stm32f1xx_hal_adc_ex.c ****   /* Note: On STM32F1 ADC, clear regular conversion flag raised               */
 483:Drivers/STM32F1xx_HAL_Driver/Src/stm32f1xx_hal_adc_ex.c ****   /* simultaneously.                                                          */
 484:Drivers/STM32F1xx_HAL_Driver/Src/stm32f1xx_hal_adc_ex.c ****   __HAL_ADC_CLEAR_FLAG(hadc, ADC_FLAG_JSTRT | ADC_FLAG_JEOC | ADC_FLAG_EOC);
 791              		.loc 1 484 3
 792 015e 7B68     		ldr	r3, [r7, #4]
 793 0160 1B68     		ldr	r3, [r3]
 794 0162 6FF00E02 		mvn	r2, #14
 795 0166 1A60     		str	r2, [r3]
 485:Drivers/STM32F1xx_HAL_Driver/Src/stm32f1xx_hal_adc_ex.c ****   
 486:Drivers/STM32F1xx_HAL_Driver/Src/stm32f1xx_hal_adc_ex.c ****   /* Update ADC state machine */
 487:Drivers/STM32F1xx_HAL_Driver/Src/stm32f1xx_hal_adc_ex.c ****   SET_BIT(hadc->State, HAL_ADC_STATE_INJ_EOC);
 796              		.loc 1 487 3
 797 0168 7B68     		ldr	r3, [r7, #4]
 798 016a 9B6A     		ldr	r3, [r3, #40]
 799 016c 43F40052 		orr	r2, r3, #8192
 800 0170 7B68     		ldr	r3, [r7, #4]
 801 0172 9A62     		str	r2, [r3, #40]
 488:Drivers/STM32F1xx_HAL_Driver/Src/stm32f1xx_hal_adc_ex.c ****   
 489:Drivers/STM32F1xx_HAL_Driver/Src/stm32f1xx_hal_adc_ex.c ****   /* Determine whether any further conversion upcoming on group injected      */
 490:Drivers/STM32F1xx_HAL_Driver/Src/stm32f1xx_hal_adc_ex.c ****   /* by external trigger or by automatic injected conversion                  */
 491:Drivers/STM32F1xx_HAL_Driver/Src/stm32f1xx_hal_adc_ex.c ****   /* from group regular.                                                      */
 492:Drivers/STM32F1xx_HAL_Driver/Src/stm32f1xx_hal_adc_ex.c ****   if(ADC_IS_SOFTWARE_START_INJECTED(hadc)                     || 
 802              		.loc 1 492 6
 803 0174 7B68     		ldr	r3, [r7, #4]
 804 0176 1B68     		ldr	r3, [r3]
 805 0178 9B68     		ldr	r3, [r3, #8]
 806 017a 03F4E043 		and	r3, r3, #28672
 807              		.loc 1 492 5
 808 017e B3F5E04F 		cmp	r3, #28672
 809 0182 12D0     		beq	.L52
 493:Drivers/STM32F1xx_HAL_Driver/Src/stm32f1xx_hal_adc_ex.c ****      (HAL_IS_BIT_CLR(hadc->Instance->CR1, ADC_CR1_JAUTO) &&     
ARM GAS  C:\Users\danie\AppData\Local\Temp\cczXkyFe.s 			page 24


 810              		.loc 1 493 7 discriminator 1
 811 0184 7B68     		ldr	r3, [r7, #4]
 812 0186 1B68     		ldr	r3, [r3]
 813 0188 5B68     		ldr	r3, [r3, #4]
 814 018a 03F48063 		and	r3, r3, #1024
 492:Drivers/STM32F1xx_HAL_Driver/Src/stm32f1xx_hal_adc_ex.c ****      (HAL_IS_BIT_CLR(hadc->Instance->CR1, ADC_CR1_JAUTO) &&     
 815              		.loc 1 492 63 discriminator 1
 816 018e 002B     		cmp	r3, #0
 817 0190 1DD1     		bne	.L53
 494:Drivers/STM32F1xx_HAL_Driver/Src/stm32f1xx_hal_adc_ex.c ****      (ADC_IS_SOFTWARE_START_REGULAR(hadc)        &&
 818              		.loc 1 494 7
 819 0192 7B68     		ldr	r3, [r7, #4]
 820 0194 1B68     		ldr	r3, [r3]
 821 0196 9B68     		ldr	r3, [r3, #8]
 822 0198 03F46023 		and	r3, r3, #917504
 493:Drivers/STM32F1xx_HAL_Driver/Src/stm32f1xx_hal_adc_ex.c ****      (HAL_IS_BIT_CLR(hadc->Instance->CR1, ADC_CR1_JAUTO) &&     
 823              		.loc 1 493 58
 824 019c B3F5602F 		cmp	r3, #917504
 825 01a0 15D1     		bne	.L53
 495:Drivers/STM32F1xx_HAL_Driver/Src/stm32f1xx_hal_adc_ex.c ****       (hadc->Init.ContinuousConvMode == DISABLE)   )        )   )
 826              		.loc 1 495 18
 827 01a2 7B68     		ldr	r3, [r7, #4]
 828 01a4 1B7B     		ldrb	r3, [r3, #12]	@ zero_extendqisi2
 494:Drivers/STM32F1xx_HAL_Driver/Src/stm32f1xx_hal_adc_ex.c ****      (ADC_IS_SOFTWARE_START_REGULAR(hadc)        &&
 829              		.loc 1 494 50
 830 01a6 002B     		cmp	r3, #0
 831 01a8 11D1     		bne	.L53
 832              	.L52:
 496:Drivers/STM32F1xx_HAL_Driver/Src/stm32f1xx_hal_adc_ex.c ****   {
 497:Drivers/STM32F1xx_HAL_Driver/Src/stm32f1xx_hal_adc_ex.c ****     /* Set ADC state */
 498:Drivers/STM32F1xx_HAL_Driver/Src/stm32f1xx_hal_adc_ex.c ****     CLEAR_BIT(hadc->State, HAL_ADC_STATE_INJ_BUSY);   
 833              		.loc 1 498 5
 834 01aa 7B68     		ldr	r3, [r7, #4]
 835 01ac 9B6A     		ldr	r3, [r3, #40]
 836 01ae 23F48052 		bic	r2, r3, #4096
 837 01b2 7B68     		ldr	r3, [r7, #4]
 838 01b4 9A62     		str	r2, [r3, #40]
 499:Drivers/STM32F1xx_HAL_Driver/Src/stm32f1xx_hal_adc_ex.c ****     
 500:Drivers/STM32F1xx_HAL_Driver/Src/stm32f1xx_hal_adc_ex.c ****     if (HAL_IS_BIT_CLR(hadc->State, HAL_ADC_STATE_REG_BUSY))
 839              		.loc 1 500 9
 840 01b6 7B68     		ldr	r3, [r7, #4]
 841 01b8 9B6A     		ldr	r3, [r3, #40]
 842 01ba 03F48073 		and	r3, r3, #256
 843              		.loc 1 500 8
 844 01be 002B     		cmp	r3, #0
 845 01c0 05D1     		bne	.L53
 501:Drivers/STM32F1xx_HAL_Driver/Src/stm32f1xx_hal_adc_ex.c ****     {
 502:Drivers/STM32F1xx_HAL_Driver/Src/stm32f1xx_hal_adc_ex.c ****       SET_BIT(hadc->State, HAL_ADC_STATE_READY);
 846              		.loc 1 502 7
 847 01c2 7B68     		ldr	r3, [r7, #4]
 848 01c4 9B6A     		ldr	r3, [r3, #40]
 849 01c6 43F00102 		orr	r2, r3, #1
 850 01ca 7B68     		ldr	r3, [r7, #4]
 851 01cc 9A62     		str	r2, [r3, #40]
 852              	.L53:
 503:Drivers/STM32F1xx_HAL_Driver/Src/stm32f1xx_hal_adc_ex.c ****     }
 504:Drivers/STM32F1xx_HAL_Driver/Src/stm32f1xx_hal_adc_ex.c ****   }
ARM GAS  C:\Users\danie\AppData\Local\Temp\cczXkyFe.s 			page 25


 505:Drivers/STM32F1xx_HAL_Driver/Src/stm32f1xx_hal_adc_ex.c ****   
 506:Drivers/STM32F1xx_HAL_Driver/Src/stm32f1xx_hal_adc_ex.c ****   /* Return ADC state */
 507:Drivers/STM32F1xx_HAL_Driver/Src/stm32f1xx_hal_adc_ex.c ****   return HAL_OK;
 853              		.loc 1 507 10
 854 01ce 0023     		movs	r3, #0
 855              	.L37:
 508:Drivers/STM32F1xx_HAL_Driver/Src/stm32f1xx_hal_adc_ex.c **** }
 856              		.loc 1 508 1
 857 01d0 1846     		mov	r0, r3
 858 01d2 1C37     		adds	r7, r7, #28
 859              	.LCFI18:
 860              		.cfi_def_cfa_offset 12
 861 01d4 BD46     		mov	sp, r7
 862              	.LCFI19:
 863              		.cfi_def_cfa_register 13
 864              		@ sp needed
 865 01d6 90BD     		pop	{r4, r7, pc}
 866              	.L55:
 867              		.align	2
 868              	.L54:
 869 01d8 00000000 		.word	SystemCoreClock
 870 01dc 24499224 		.word	613566756
 871 01e0 24499200 		.word	9586980
 872 01e4 92244912 		.word	306783378
 873 01e8 92244900 		.word	4793490
 874 01ec 49922400 		.word	2396745
 875              		.cfi_endproc
 876              	.LFE68:
 878              		.section	.text.HAL_ADCEx_InjectedStart_IT,"ax",%progbits
 879              		.align	1
 880              		.global	HAL_ADCEx_InjectedStart_IT
 881              		.syntax unified
 882              		.thumb
 883              		.thumb_func
 884              		.fpu softvfp
 886              	HAL_ADCEx_InjectedStart_IT:
 887              	.LFB69:
 509:Drivers/STM32F1xx_HAL_Driver/Src/stm32f1xx_hal_adc_ex.c **** 
 510:Drivers/STM32F1xx_HAL_Driver/Src/stm32f1xx_hal_adc_ex.c **** /**
 511:Drivers/STM32F1xx_HAL_Driver/Src/stm32f1xx_hal_adc_ex.c ****   * @brief  Enables ADC, starts conversion of injected group with interruption.
 512:Drivers/STM32F1xx_HAL_Driver/Src/stm32f1xx_hal_adc_ex.c ****   *          - JEOC (end of conversion of injected group)
 513:Drivers/STM32F1xx_HAL_Driver/Src/stm32f1xx_hal_adc_ex.c ****   *         Each of these interruptions has its dedicated callback function.
 514:Drivers/STM32F1xx_HAL_Driver/Src/stm32f1xx_hal_adc_ex.c ****   * @param  hadc: ADC handle
 515:Drivers/STM32F1xx_HAL_Driver/Src/stm32f1xx_hal_adc_ex.c ****   * @retval HAL status.
 516:Drivers/STM32F1xx_HAL_Driver/Src/stm32f1xx_hal_adc_ex.c ****   */
 517:Drivers/STM32F1xx_HAL_Driver/Src/stm32f1xx_hal_adc_ex.c **** HAL_StatusTypeDef HAL_ADCEx_InjectedStart_IT(ADC_HandleTypeDef* hadc)
 518:Drivers/STM32F1xx_HAL_Driver/Src/stm32f1xx_hal_adc_ex.c **** {
 888              		.loc 1 518 1
 889              		.cfi_startproc
 890              		@ args = 0, pretend = 0, frame = 16
 891              		@ frame_needed = 1, uses_anonymous_args = 0
 892 0000 80B5     		push	{r7, lr}
 893              	.LCFI20:
 894              		.cfi_def_cfa_offset 8
 895              		.cfi_offset 7, -8
 896              		.cfi_offset 14, -4
 897 0002 84B0     		sub	sp, sp, #16
ARM GAS  C:\Users\danie\AppData\Local\Temp\cczXkyFe.s 			page 26


 898              	.LCFI21:
 899              		.cfi_def_cfa_offset 24
 900 0004 00AF     		add	r7, sp, #0
 901              	.LCFI22:
 902              		.cfi_def_cfa_register 7
 903 0006 7860     		str	r0, [r7, #4]
 519:Drivers/STM32F1xx_HAL_Driver/Src/stm32f1xx_hal_adc_ex.c ****   HAL_StatusTypeDef tmp_hal_status = HAL_OK;
 904              		.loc 1 519 21
 905 0008 0023     		movs	r3, #0
 906 000a FB73     		strb	r3, [r7, #15]
 520:Drivers/STM32F1xx_HAL_Driver/Src/stm32f1xx_hal_adc_ex.c ****   
 521:Drivers/STM32F1xx_HAL_Driver/Src/stm32f1xx_hal_adc_ex.c ****   /* Check the parameters */
 522:Drivers/STM32F1xx_HAL_Driver/Src/stm32f1xx_hal_adc_ex.c ****   assert_param(IS_ADC_ALL_INSTANCE(hadc->Instance));
 523:Drivers/STM32F1xx_HAL_Driver/Src/stm32f1xx_hal_adc_ex.c ****   
 524:Drivers/STM32F1xx_HAL_Driver/Src/stm32f1xx_hal_adc_ex.c ****   /* Process locked */
 525:Drivers/STM32F1xx_HAL_Driver/Src/stm32f1xx_hal_adc_ex.c ****   __HAL_LOCK(hadc);
 907              		.loc 1 525 3
 908 000c 7B68     		ldr	r3, [r7, #4]
 909 000e 93F82430 		ldrb	r3, [r3, #36]	@ zero_extendqisi2
 910 0012 012B     		cmp	r3, #1
 911 0014 01D1     		bne	.L57
 912              		.loc 1 525 3 is_stmt 0 discriminator 1
 913 0016 0223     		movs	r3, #2
 914 0018 78E0     		b	.L58
 915              	.L57:
 916              		.loc 1 525 3 discriminator 2
 917 001a 7B68     		ldr	r3, [r7, #4]
 918 001c 0122     		movs	r2, #1
 919 001e 83F82420 		strb	r2, [r3, #36]
 526:Drivers/STM32F1xx_HAL_Driver/Src/stm32f1xx_hal_adc_ex.c ****     
 527:Drivers/STM32F1xx_HAL_Driver/Src/stm32f1xx_hal_adc_ex.c ****   /* Enable the ADC peripheral */
 528:Drivers/STM32F1xx_HAL_Driver/Src/stm32f1xx_hal_adc_ex.c ****   tmp_hal_status = ADC_Enable(hadc);
 920              		.loc 1 528 20 is_stmt 1 discriminator 2
 921 0022 7868     		ldr	r0, [r7, #4]
 922 0024 FFF7FEFF 		bl	ADC_Enable
 923 0028 0346     		mov	r3, r0
 924 002a FB73     		strb	r3, [r7, #15]
 529:Drivers/STM32F1xx_HAL_Driver/Src/stm32f1xx_hal_adc_ex.c ****   
 530:Drivers/STM32F1xx_HAL_Driver/Src/stm32f1xx_hal_adc_ex.c ****   /* Start conversion if ADC is effectively enabled */
 531:Drivers/STM32F1xx_HAL_Driver/Src/stm32f1xx_hal_adc_ex.c ****   if (tmp_hal_status == HAL_OK)
 925              		.loc 1 531 6 discriminator 2
 926 002c FB7B     		ldrb	r3, [r7, #15]	@ zero_extendqisi2
 927 002e 002B     		cmp	r3, #0
 928 0030 67D1     		bne	.L59
 532:Drivers/STM32F1xx_HAL_Driver/Src/stm32f1xx_hal_adc_ex.c ****   {
 533:Drivers/STM32F1xx_HAL_Driver/Src/stm32f1xx_hal_adc_ex.c ****     /* Set ADC state                                                          */
 534:Drivers/STM32F1xx_HAL_Driver/Src/stm32f1xx_hal_adc_ex.c ****     /* - Clear state bitfield related to injected group conversion results    */
 535:Drivers/STM32F1xx_HAL_Driver/Src/stm32f1xx_hal_adc_ex.c ****     /* - Set state bitfield related to injected operation                     */
 536:Drivers/STM32F1xx_HAL_Driver/Src/stm32f1xx_hal_adc_ex.c ****     ADC_STATE_CLR_SET(hadc->State,
 929              		.loc 1 536 5
 930 0032 7B68     		ldr	r3, [r7, #4]
 931 0034 9B6A     		ldr	r3, [r3, #40]
 932 0036 23F44053 		bic	r3, r3, #12288
 933 003a 23F00103 		bic	r3, r3, #1
 934 003e 43F48052 		orr	r2, r3, #4096
 935 0042 7B68     		ldr	r3, [r7, #4]
 936 0044 9A62     		str	r2, [r3, #40]
ARM GAS  C:\Users\danie\AppData\Local\Temp\cczXkyFe.s 			page 27


 537:Drivers/STM32F1xx_HAL_Driver/Src/stm32f1xx_hal_adc_ex.c ****                       HAL_ADC_STATE_READY | HAL_ADC_STATE_INJ_EOC,
 538:Drivers/STM32F1xx_HAL_Driver/Src/stm32f1xx_hal_adc_ex.c ****                       HAL_ADC_STATE_INJ_BUSY);
 539:Drivers/STM32F1xx_HAL_Driver/Src/stm32f1xx_hal_adc_ex.c ****     
 540:Drivers/STM32F1xx_HAL_Driver/Src/stm32f1xx_hal_adc_ex.c ****     /* Case of independent mode or multimode (for devices with several ADCs): */
 541:Drivers/STM32F1xx_HAL_Driver/Src/stm32f1xx_hal_adc_ex.c ****     /* Set multimode state.                                                   */
 542:Drivers/STM32F1xx_HAL_Driver/Src/stm32f1xx_hal_adc_ex.c ****     if (ADC_NONMULTIMODE_OR_MULTIMODEMASTER(hadc))
 937              		.loc 1 542 9
 938 0046 7B68     		ldr	r3, [r7, #4]
 939 0048 1B68     		ldr	r3, [r3]
 940              		.loc 1 542 8
 941 004a 324A     		ldr	r2, .L68
 942 004c 9342     		cmp	r3, r2
 943 004e 05D1     		bne	.L60
 944              		.loc 1 542 9 discriminator 1
 945 0050 314B     		ldr	r3, .L68+4
 946 0052 5B68     		ldr	r3, [r3, #4]
 947 0054 03F47023 		and	r3, r3, #983040
 948 0058 002B     		cmp	r3, #0
 949 005a 06D1     		bne	.L61
 950              	.L60:
 543:Drivers/STM32F1xx_HAL_Driver/Src/stm32f1xx_hal_adc_ex.c ****     {
 544:Drivers/STM32F1xx_HAL_Driver/Src/stm32f1xx_hal_adc_ex.c ****       CLEAR_BIT(hadc->State, HAL_ADC_STATE_MULTIMODE_SLAVE);
 951              		.loc 1 544 7
 952 005c 7B68     		ldr	r3, [r7, #4]
 953 005e 9B6A     		ldr	r3, [r3, #40]
 954 0060 23F48012 		bic	r2, r3, #1048576
 955 0064 7B68     		ldr	r3, [r7, #4]
 956 0066 9A62     		str	r2, [r3, #40]
 957 0068 05E0     		b	.L62
 958              	.L61:
 545:Drivers/STM32F1xx_HAL_Driver/Src/stm32f1xx_hal_adc_ex.c ****     }
 546:Drivers/STM32F1xx_HAL_Driver/Src/stm32f1xx_hal_adc_ex.c ****     else
 547:Drivers/STM32F1xx_HAL_Driver/Src/stm32f1xx_hal_adc_ex.c ****     {
 548:Drivers/STM32F1xx_HAL_Driver/Src/stm32f1xx_hal_adc_ex.c ****       SET_BIT(hadc->State, HAL_ADC_STATE_MULTIMODE_SLAVE);
 959              		.loc 1 548 7
 960 006a 7B68     		ldr	r3, [r7, #4]
 961 006c 9B6A     		ldr	r3, [r3, #40]
 962 006e 43F48012 		orr	r2, r3, #1048576
 963 0072 7B68     		ldr	r3, [r7, #4]
 964 0074 9A62     		str	r2, [r3, #40]
 965              	.L62:
 549:Drivers/STM32F1xx_HAL_Driver/Src/stm32f1xx_hal_adc_ex.c ****     }
 550:Drivers/STM32F1xx_HAL_Driver/Src/stm32f1xx_hal_adc_ex.c ****     
 551:Drivers/STM32F1xx_HAL_Driver/Src/stm32f1xx_hal_adc_ex.c ****     /* Check if a regular conversion is ongoing */
 552:Drivers/STM32F1xx_HAL_Driver/Src/stm32f1xx_hal_adc_ex.c ****     /* Note: On this device, there is no ADC error code fields related to     */
 553:Drivers/STM32F1xx_HAL_Driver/Src/stm32f1xx_hal_adc_ex.c ****     /*       conversions on group injected only. In case of conversion on     */
 554:Drivers/STM32F1xx_HAL_Driver/Src/stm32f1xx_hal_adc_ex.c ****     /*       going on group regular, no error code is reset.                  */
 555:Drivers/STM32F1xx_HAL_Driver/Src/stm32f1xx_hal_adc_ex.c ****     if (HAL_IS_BIT_CLR(hadc->State, HAL_ADC_STATE_REG_BUSY))
 966              		.loc 1 555 9
 967 0076 7B68     		ldr	r3, [r7, #4]
 968 0078 9B6A     		ldr	r3, [r3, #40]
 969 007a 03F48073 		and	r3, r3, #256
 970              		.loc 1 555 8
 971 007e 002B     		cmp	r3, #0
 972 0080 02D1     		bne	.L63
 556:Drivers/STM32F1xx_HAL_Driver/Src/stm32f1xx_hal_adc_ex.c ****     {
 557:Drivers/STM32F1xx_HAL_Driver/Src/stm32f1xx_hal_adc_ex.c ****       /* Reset ADC all error code fields */
ARM GAS  C:\Users\danie\AppData\Local\Temp\cczXkyFe.s 			page 28


 558:Drivers/STM32F1xx_HAL_Driver/Src/stm32f1xx_hal_adc_ex.c ****       ADC_CLEAR_ERRORCODE(hadc);
 973              		.loc 1 558 7
 974 0082 7B68     		ldr	r3, [r7, #4]
 975 0084 0022     		movs	r2, #0
 976 0086 DA62     		str	r2, [r3, #44]
 977              	.L63:
 559:Drivers/STM32F1xx_HAL_Driver/Src/stm32f1xx_hal_adc_ex.c ****     }
 560:Drivers/STM32F1xx_HAL_Driver/Src/stm32f1xx_hal_adc_ex.c ****     
 561:Drivers/STM32F1xx_HAL_Driver/Src/stm32f1xx_hal_adc_ex.c ****     /* Process unlocked */
 562:Drivers/STM32F1xx_HAL_Driver/Src/stm32f1xx_hal_adc_ex.c ****     /* Unlock before starting ADC conversions: in case of potential           */
 563:Drivers/STM32F1xx_HAL_Driver/Src/stm32f1xx_hal_adc_ex.c ****     /* interruption, to let the process to ADC IRQ Handler.                   */
 564:Drivers/STM32F1xx_HAL_Driver/Src/stm32f1xx_hal_adc_ex.c ****     __HAL_UNLOCK(hadc);
 978              		.loc 1 564 5
 979 0088 7B68     		ldr	r3, [r7, #4]
 980 008a 0022     		movs	r2, #0
 981 008c 83F82420 		strb	r2, [r3, #36]
 565:Drivers/STM32F1xx_HAL_Driver/Src/stm32f1xx_hal_adc_ex.c ****     
 566:Drivers/STM32F1xx_HAL_Driver/Src/stm32f1xx_hal_adc_ex.c ****     /* Clear injected group conversion flag */
 567:Drivers/STM32F1xx_HAL_Driver/Src/stm32f1xx_hal_adc_ex.c ****     /* (To ensure of no unknown state from potential previous ADC operations) */
 568:Drivers/STM32F1xx_HAL_Driver/Src/stm32f1xx_hal_adc_ex.c ****     __HAL_ADC_CLEAR_FLAG(hadc, ADC_FLAG_JEOC);
 982              		.loc 1 568 5
 983 0090 7B68     		ldr	r3, [r7, #4]
 984 0092 1B68     		ldr	r3, [r3]
 985 0094 6FF00402 		mvn	r2, #4
 986 0098 1A60     		str	r2, [r3]
 569:Drivers/STM32F1xx_HAL_Driver/Src/stm32f1xx_hal_adc_ex.c ****     
 570:Drivers/STM32F1xx_HAL_Driver/Src/stm32f1xx_hal_adc_ex.c ****     /* Enable end of conversion interrupt for injected channels */
 571:Drivers/STM32F1xx_HAL_Driver/Src/stm32f1xx_hal_adc_ex.c ****     __HAL_ADC_ENABLE_IT(hadc, ADC_IT_JEOC);
 987              		.loc 1 571 5
 988 009a 7B68     		ldr	r3, [r7, #4]
 989 009c 1B68     		ldr	r3, [r3]
 990 009e 5A68     		ldr	r2, [r3, #4]
 991 00a0 7B68     		ldr	r3, [r7, #4]
 992 00a2 1B68     		ldr	r3, [r3]
 993 00a4 42F08002 		orr	r2, r2, #128
 994 00a8 5A60     		str	r2, [r3, #4]
 572:Drivers/STM32F1xx_HAL_Driver/Src/stm32f1xx_hal_adc_ex.c ****     
 573:Drivers/STM32F1xx_HAL_Driver/Src/stm32f1xx_hal_adc_ex.c ****     /* Start conversion of injected group if software start has been selected */
 574:Drivers/STM32F1xx_HAL_Driver/Src/stm32f1xx_hal_adc_ex.c ****     /* and if automatic injected conversion is disabled.                      */
 575:Drivers/STM32F1xx_HAL_Driver/Src/stm32f1xx_hal_adc_ex.c ****     /* If external trigger has been selected, conversion will start at next   */
 576:Drivers/STM32F1xx_HAL_Driver/Src/stm32f1xx_hal_adc_ex.c ****     /* trigger event.                                                         */
 577:Drivers/STM32F1xx_HAL_Driver/Src/stm32f1xx_hal_adc_ex.c ****     /* If automatic injected conversion is enabled, conversion will start     */
 578:Drivers/STM32F1xx_HAL_Driver/Src/stm32f1xx_hal_adc_ex.c ****     /* after next regular group conversion.                                   */
 579:Drivers/STM32F1xx_HAL_Driver/Src/stm32f1xx_hal_adc_ex.c ****     if (HAL_IS_BIT_CLR(hadc->Instance->CR1, ADC_CR1_JAUTO))
 995              		.loc 1 579 9
 996 00aa 7B68     		ldr	r3, [r7, #4]
 997 00ac 1B68     		ldr	r3, [r3]
 998 00ae 5B68     		ldr	r3, [r3, #4]
 999 00b0 03F48063 		and	r3, r3, #1024
 1000              		.loc 1 579 8
 1001 00b4 002B     		cmp	r3, #0
 1002 00b6 28D1     		bne	.L67
 580:Drivers/STM32F1xx_HAL_Driver/Src/stm32f1xx_hal_adc_ex.c ****     {
 581:Drivers/STM32F1xx_HAL_Driver/Src/stm32f1xx_hal_adc_ex.c ****       if (ADC_IS_SOFTWARE_START_INJECTED(hadc)     &&
 1003              		.loc 1 581 11
 1004 00b8 7B68     		ldr	r3, [r7, #4]
 1005 00ba 1B68     		ldr	r3, [r3]
ARM GAS  C:\Users\danie\AppData\Local\Temp\cczXkyFe.s 			page 29


 1006 00bc 9B68     		ldr	r3, [r3, #8]
 1007 00be 03F4E043 		and	r3, r3, #28672
 1008              		.loc 1 581 10
 1009 00c2 B3F5E04F 		cmp	r3, #28672
 1010 00c6 13D1     		bne	.L65
 582:Drivers/STM32F1xx_HAL_Driver/Src/stm32f1xx_hal_adc_ex.c ****           ADC_NONMULTIMODE_OR_MULTIMODEMASTER(hadc)  )
 1011              		.loc 1 582 11 discriminator 1
 1012 00c8 7B68     		ldr	r3, [r7, #4]
 1013 00ca 1B68     		ldr	r3, [r3]
 581:Drivers/STM32F1xx_HAL_Driver/Src/stm32f1xx_hal_adc_ex.c ****           ADC_NONMULTIMODE_OR_MULTIMODEMASTER(hadc)  )
 1014              		.loc 1 581 52 discriminator 1
 1015 00cc 114A     		ldr	r2, .L68
 1016 00ce 9342     		cmp	r3, r2
 1017 00d0 05D1     		bne	.L66
 1018              		.loc 1 582 11 discriminator 2
 1019 00d2 114B     		ldr	r3, .L68+4
 1020 00d4 5B68     		ldr	r3, [r3, #4]
 1021 00d6 03F47023 		and	r3, r3, #983040
 581:Drivers/STM32F1xx_HAL_Driver/Src/stm32f1xx_hal_adc_ex.c ****           ADC_NONMULTIMODE_OR_MULTIMODEMASTER(hadc)  )
 1022              		.loc 1 581 52 discriminator 2
 1023 00da 002B     		cmp	r3, #0
 1024 00dc 08D1     		bne	.L65
 1025              	.L66:
 583:Drivers/STM32F1xx_HAL_Driver/Src/stm32f1xx_hal_adc_ex.c ****       {
 584:Drivers/STM32F1xx_HAL_Driver/Src/stm32f1xx_hal_adc_ex.c ****         /* Start ADC conversion on injected group with SW start */
 585:Drivers/STM32F1xx_HAL_Driver/Src/stm32f1xx_hal_adc_ex.c ****         SET_BIT(hadc->Instance->CR2, (ADC_CR2_JSWSTART | ADC_CR2_JEXTTRIG));
 1026              		.loc 1 585 9
 1027 00de 7B68     		ldr	r3, [r7, #4]
 1028 00e0 1B68     		ldr	r3, [r3]
 1029 00e2 9A68     		ldr	r2, [r3, #8]
 1030 00e4 7B68     		ldr	r3, [r7, #4]
 1031 00e6 1B68     		ldr	r3, [r3]
 1032 00e8 42F40212 		orr	r2, r2, #2129920
 1033 00ec 9A60     		str	r2, [r3, #8]
 1034 00ee 0CE0     		b	.L67
 1035              	.L65:
 586:Drivers/STM32F1xx_HAL_Driver/Src/stm32f1xx_hal_adc_ex.c ****       }
 587:Drivers/STM32F1xx_HAL_Driver/Src/stm32f1xx_hal_adc_ex.c ****       else
 588:Drivers/STM32F1xx_HAL_Driver/Src/stm32f1xx_hal_adc_ex.c ****       {
 589:Drivers/STM32F1xx_HAL_Driver/Src/stm32f1xx_hal_adc_ex.c ****         /* Start ADC conversion on injected group with external trigger */
 590:Drivers/STM32F1xx_HAL_Driver/Src/stm32f1xx_hal_adc_ex.c ****         SET_BIT(hadc->Instance->CR2, ADC_CR2_JEXTTRIG);
 1036              		.loc 1 590 9
 1037 00f0 7B68     		ldr	r3, [r7, #4]
 1038 00f2 1B68     		ldr	r3, [r3]
 1039 00f4 9A68     		ldr	r2, [r3, #8]
 1040 00f6 7B68     		ldr	r3, [r7, #4]
 1041 00f8 1B68     		ldr	r3, [r3]
 1042 00fa 42F40042 		orr	r2, r2, #32768
 1043 00fe 9A60     		str	r2, [r3, #8]
 1044 0100 03E0     		b	.L67
 1045              	.L59:
 591:Drivers/STM32F1xx_HAL_Driver/Src/stm32f1xx_hal_adc_ex.c ****       }
 592:Drivers/STM32F1xx_HAL_Driver/Src/stm32f1xx_hal_adc_ex.c ****     }
 593:Drivers/STM32F1xx_HAL_Driver/Src/stm32f1xx_hal_adc_ex.c ****   }
 594:Drivers/STM32F1xx_HAL_Driver/Src/stm32f1xx_hal_adc_ex.c ****   else
 595:Drivers/STM32F1xx_HAL_Driver/Src/stm32f1xx_hal_adc_ex.c ****   {
 596:Drivers/STM32F1xx_HAL_Driver/Src/stm32f1xx_hal_adc_ex.c ****     /* Process unlocked */
ARM GAS  C:\Users\danie\AppData\Local\Temp\cczXkyFe.s 			page 30


 597:Drivers/STM32F1xx_HAL_Driver/Src/stm32f1xx_hal_adc_ex.c ****     __HAL_UNLOCK(hadc);
 1046              		.loc 1 597 5
 1047 0102 7B68     		ldr	r3, [r7, #4]
 1048 0104 0022     		movs	r2, #0
 1049 0106 83F82420 		strb	r2, [r3, #36]
 1050              	.L67:
 598:Drivers/STM32F1xx_HAL_Driver/Src/stm32f1xx_hal_adc_ex.c ****   }
 599:Drivers/STM32F1xx_HAL_Driver/Src/stm32f1xx_hal_adc_ex.c ****   
 600:Drivers/STM32F1xx_HAL_Driver/Src/stm32f1xx_hal_adc_ex.c ****   /* Return function status */
 601:Drivers/STM32F1xx_HAL_Driver/Src/stm32f1xx_hal_adc_ex.c ****   return tmp_hal_status;
 1051              		.loc 1 601 10
 1052 010a FB7B     		ldrb	r3, [r7, #15]	@ zero_extendqisi2
 1053              	.L58:
 602:Drivers/STM32F1xx_HAL_Driver/Src/stm32f1xx_hal_adc_ex.c **** }
 1054              		.loc 1 602 1
 1055 010c 1846     		mov	r0, r3
 1056 010e 1037     		adds	r7, r7, #16
 1057              	.LCFI23:
 1058              		.cfi_def_cfa_offset 8
 1059 0110 BD46     		mov	sp, r7
 1060              	.LCFI24:
 1061              		.cfi_def_cfa_register 13
 1062              		@ sp needed
 1063 0112 80BD     		pop	{r7, pc}
 1064              	.L69:
 1065              		.align	2
 1066              	.L68:
 1067 0114 00280140 		.word	1073817600
 1068 0118 00240140 		.word	1073816576
 1069              		.cfi_endproc
 1070              	.LFE69:
 1072              		.section	.text.HAL_ADCEx_InjectedStop_IT,"ax",%progbits
 1073              		.align	1
 1074              		.global	HAL_ADCEx_InjectedStop_IT
 1075              		.syntax unified
 1076              		.thumb
 1077              		.thumb_func
 1078              		.fpu softvfp
 1080              	HAL_ADCEx_InjectedStop_IT:
 1081              	.LFB70:
 603:Drivers/STM32F1xx_HAL_Driver/Src/stm32f1xx_hal_adc_ex.c **** 
 604:Drivers/STM32F1xx_HAL_Driver/Src/stm32f1xx_hal_adc_ex.c **** /**
 605:Drivers/STM32F1xx_HAL_Driver/Src/stm32f1xx_hal_adc_ex.c ****   * @brief  Stop conversion of injected channels, disable interruption of 
 606:Drivers/STM32F1xx_HAL_Driver/Src/stm32f1xx_hal_adc_ex.c ****   *         end-of-conversion. Disable ADC peripheral if no regular conversion
 607:Drivers/STM32F1xx_HAL_Driver/Src/stm32f1xx_hal_adc_ex.c ****   *         is on going.
 608:Drivers/STM32F1xx_HAL_Driver/Src/stm32f1xx_hal_adc_ex.c ****   * @note   If ADC must be disabled and if conversion is on going on 
 609:Drivers/STM32F1xx_HAL_Driver/Src/stm32f1xx_hal_adc_ex.c ****   *         regular group, function HAL_ADC_Stop must be used to stop both
 610:Drivers/STM32F1xx_HAL_Driver/Src/stm32f1xx_hal_adc_ex.c ****   *         injected and regular groups, and disable the ADC.
 611:Drivers/STM32F1xx_HAL_Driver/Src/stm32f1xx_hal_adc_ex.c ****   * @note   If injected group mode auto-injection is enabled,
 612:Drivers/STM32F1xx_HAL_Driver/Src/stm32f1xx_hal_adc_ex.c ****   *         function HAL_ADC_Stop must be used.
 613:Drivers/STM32F1xx_HAL_Driver/Src/stm32f1xx_hal_adc_ex.c ****   * @param  hadc: ADC handle
 614:Drivers/STM32F1xx_HAL_Driver/Src/stm32f1xx_hal_adc_ex.c ****   * @retval None
 615:Drivers/STM32F1xx_HAL_Driver/Src/stm32f1xx_hal_adc_ex.c ****   */
 616:Drivers/STM32F1xx_HAL_Driver/Src/stm32f1xx_hal_adc_ex.c **** HAL_StatusTypeDef HAL_ADCEx_InjectedStop_IT(ADC_HandleTypeDef* hadc)
 617:Drivers/STM32F1xx_HAL_Driver/Src/stm32f1xx_hal_adc_ex.c **** {
 1082              		.loc 1 617 1
 1083              		.cfi_startproc
ARM GAS  C:\Users\danie\AppData\Local\Temp\cczXkyFe.s 			page 31


 1084              		@ args = 0, pretend = 0, frame = 16
 1085              		@ frame_needed = 1, uses_anonymous_args = 0
 1086 0000 80B5     		push	{r7, lr}
 1087              	.LCFI25:
 1088              		.cfi_def_cfa_offset 8
 1089              		.cfi_offset 7, -8
 1090              		.cfi_offset 14, -4
 1091 0002 84B0     		sub	sp, sp, #16
 1092              	.LCFI26:
 1093              		.cfi_def_cfa_offset 24
 1094 0004 00AF     		add	r7, sp, #0
 1095              	.LCFI27:
 1096              		.cfi_def_cfa_register 7
 1097 0006 7860     		str	r0, [r7, #4]
 618:Drivers/STM32F1xx_HAL_Driver/Src/stm32f1xx_hal_adc_ex.c ****   HAL_StatusTypeDef tmp_hal_status = HAL_OK;
 1098              		.loc 1 618 21
 1099 0008 0023     		movs	r3, #0
 1100 000a FB73     		strb	r3, [r7, #15]
 619:Drivers/STM32F1xx_HAL_Driver/Src/stm32f1xx_hal_adc_ex.c ****   
 620:Drivers/STM32F1xx_HAL_Driver/Src/stm32f1xx_hal_adc_ex.c ****   /* Check the parameters */
 621:Drivers/STM32F1xx_HAL_Driver/Src/stm32f1xx_hal_adc_ex.c ****   assert_param(IS_ADC_ALL_INSTANCE(hadc->Instance));
 622:Drivers/STM32F1xx_HAL_Driver/Src/stm32f1xx_hal_adc_ex.c **** 
 623:Drivers/STM32F1xx_HAL_Driver/Src/stm32f1xx_hal_adc_ex.c ****   /* Process locked */
 624:Drivers/STM32F1xx_HAL_Driver/Src/stm32f1xx_hal_adc_ex.c ****   __HAL_LOCK(hadc);
 1101              		.loc 1 624 3
 1102 000c 7B68     		ldr	r3, [r7, #4]
 1103 000e 93F82430 		ldrb	r3, [r3, #36]	@ zero_extendqisi2
 1104 0012 012B     		cmp	r3, #1
 1105 0014 01D1     		bne	.L71
 1106              		.loc 1 624 3 is_stmt 0 discriminator 1
 1107 0016 0223     		movs	r3, #2
 1108 0018 38E0     		b	.L72
 1109              	.L71:
 1110              		.loc 1 624 3 discriminator 2
 1111 001a 7B68     		ldr	r3, [r7, #4]
 1112 001c 0122     		movs	r2, #1
 1113 001e 83F82420 		strb	r2, [r3, #36]
 625:Drivers/STM32F1xx_HAL_Driver/Src/stm32f1xx_hal_adc_ex.c ****     
 626:Drivers/STM32F1xx_HAL_Driver/Src/stm32f1xx_hal_adc_ex.c ****   /* Stop potential conversion and disable ADC peripheral                     */
 627:Drivers/STM32F1xx_HAL_Driver/Src/stm32f1xx_hal_adc_ex.c ****   /* Conditioned to:                                                          */
 628:Drivers/STM32F1xx_HAL_Driver/Src/stm32f1xx_hal_adc_ex.c ****   /* - No conversion on the other group (regular group) is intended to        */
 629:Drivers/STM32F1xx_HAL_Driver/Src/stm32f1xx_hal_adc_ex.c ****   /*   continue (injected and regular groups stop conversion and ADC disable  */
 630:Drivers/STM32F1xx_HAL_Driver/Src/stm32f1xx_hal_adc_ex.c ****   /*   are common)                                                            */
 631:Drivers/STM32F1xx_HAL_Driver/Src/stm32f1xx_hal_adc_ex.c ****   /* - In case of auto-injection mode, HAL_ADC_Stop must be used.             */ 
 632:Drivers/STM32F1xx_HAL_Driver/Src/stm32f1xx_hal_adc_ex.c ****   if(((hadc->State & HAL_ADC_STATE_REG_BUSY) == RESET)  &&
 1114              		.loc 1 632 12 is_stmt 1 discriminator 2
 1115 0022 7B68     		ldr	r3, [r7, #4]
 1116 0024 9B6A     		ldr	r3, [r3, #40]
 1117              		.loc 1 632 20 discriminator 2
 1118 0026 03F48073 		and	r3, r3, #256
 1119              		.loc 1 632 5 discriminator 2
 1120 002a 002B     		cmp	r3, #0
 1121 002c 21D1     		bne	.L73
 633:Drivers/STM32F1xx_HAL_Driver/Src/stm32f1xx_hal_adc_ex.c ****      HAL_IS_BIT_CLR(hadc->Instance->CR1, ADC_CR1_JAUTO)   )
 1122              		.loc 1 633 6 discriminator 1
 1123 002e 7B68     		ldr	r3, [r7, #4]
 1124 0030 1B68     		ldr	r3, [r3]
ARM GAS  C:\Users\danie\AppData\Local\Temp\cczXkyFe.s 			page 32


 1125 0032 5B68     		ldr	r3, [r3, #4]
 1126 0034 03F48063 		and	r3, r3, #1024
 632:Drivers/STM32F1xx_HAL_Driver/Src/stm32f1xx_hal_adc_ex.c ****      HAL_IS_BIT_CLR(hadc->Instance->CR1, ADC_CR1_JAUTO)   )
 1127              		.loc 1 632 57 discriminator 1
 1128 0038 002B     		cmp	r3, #0
 1129 003a 1AD1     		bne	.L73
 634:Drivers/STM32F1xx_HAL_Driver/Src/stm32f1xx_hal_adc_ex.c ****   {
 635:Drivers/STM32F1xx_HAL_Driver/Src/stm32f1xx_hal_adc_ex.c ****     /* Stop potential conversion on going, on regular and injected groups */
 636:Drivers/STM32F1xx_HAL_Driver/Src/stm32f1xx_hal_adc_ex.c ****     /* Disable ADC peripheral */
 637:Drivers/STM32F1xx_HAL_Driver/Src/stm32f1xx_hal_adc_ex.c ****     tmp_hal_status = ADC_ConversionStop_Disable(hadc);
 1130              		.loc 1 637 22
 1131 003c 7868     		ldr	r0, [r7, #4]
 1132 003e FFF7FEFF 		bl	ADC_ConversionStop_Disable
 1133 0042 0346     		mov	r3, r0
 1134 0044 FB73     		strb	r3, [r7, #15]
 638:Drivers/STM32F1xx_HAL_Driver/Src/stm32f1xx_hal_adc_ex.c ****     
 639:Drivers/STM32F1xx_HAL_Driver/Src/stm32f1xx_hal_adc_ex.c ****     /* Check if ADC is effectively disabled */
 640:Drivers/STM32F1xx_HAL_Driver/Src/stm32f1xx_hal_adc_ex.c ****     if (tmp_hal_status == HAL_OK)
 1135              		.loc 1 640 8
 1136 0046 FB7B     		ldrb	r3, [r7, #15]	@ zero_extendqisi2
 1137 0048 002B     		cmp	r3, #0
 1138 004a 1AD1     		bne	.L75
 641:Drivers/STM32F1xx_HAL_Driver/Src/stm32f1xx_hal_adc_ex.c ****     {
 642:Drivers/STM32F1xx_HAL_Driver/Src/stm32f1xx_hal_adc_ex.c ****       /* Disable ADC end of conversion interrupt for injected channels */
 643:Drivers/STM32F1xx_HAL_Driver/Src/stm32f1xx_hal_adc_ex.c ****       __HAL_ADC_DISABLE_IT(hadc, ADC_IT_JEOC);
 1139              		.loc 1 643 7
 1140 004c 7B68     		ldr	r3, [r7, #4]
 1141 004e 1B68     		ldr	r3, [r3]
 1142 0050 5A68     		ldr	r2, [r3, #4]
 1143 0052 7B68     		ldr	r3, [r7, #4]
 1144 0054 1B68     		ldr	r3, [r3]
 1145 0056 22F08002 		bic	r2, r2, #128
 1146 005a 5A60     		str	r2, [r3, #4]
 644:Drivers/STM32F1xx_HAL_Driver/Src/stm32f1xx_hal_adc_ex.c ****       
 645:Drivers/STM32F1xx_HAL_Driver/Src/stm32f1xx_hal_adc_ex.c ****       /* Set ADC state */
 646:Drivers/STM32F1xx_HAL_Driver/Src/stm32f1xx_hal_adc_ex.c ****       ADC_STATE_CLR_SET(hadc->State,
 1147              		.loc 1 646 7
 1148 005c 7B68     		ldr	r3, [r7, #4]
 1149 005e 9B6A     		ldr	r3, [r3, #40]
 1150 0060 23F48853 		bic	r3, r3, #4352
 1151 0064 23F00103 		bic	r3, r3, #1
 1152 0068 43F00102 		orr	r2, r3, #1
 1153 006c 7B68     		ldr	r3, [r7, #4]
 1154 006e 9A62     		str	r2, [r3, #40]
 640:Drivers/STM32F1xx_HAL_Driver/Src/stm32f1xx_hal_adc_ex.c ****     {
 1155              		.loc 1 640 8
 1156 0070 07E0     		b	.L75
 1157              	.L73:
 647:Drivers/STM32F1xx_HAL_Driver/Src/stm32f1xx_hal_adc_ex.c ****                         HAL_ADC_STATE_REG_BUSY | HAL_ADC_STATE_INJ_BUSY,
 648:Drivers/STM32F1xx_HAL_Driver/Src/stm32f1xx_hal_adc_ex.c ****                         HAL_ADC_STATE_READY);
 649:Drivers/STM32F1xx_HAL_Driver/Src/stm32f1xx_hal_adc_ex.c ****     }
 650:Drivers/STM32F1xx_HAL_Driver/Src/stm32f1xx_hal_adc_ex.c ****   }
 651:Drivers/STM32F1xx_HAL_Driver/Src/stm32f1xx_hal_adc_ex.c ****   else
 652:Drivers/STM32F1xx_HAL_Driver/Src/stm32f1xx_hal_adc_ex.c ****   {
 653:Drivers/STM32F1xx_HAL_Driver/Src/stm32f1xx_hal_adc_ex.c ****     /* Update ADC state machine to error */
 654:Drivers/STM32F1xx_HAL_Driver/Src/stm32f1xx_hal_adc_ex.c ****     SET_BIT(hadc->State, HAL_ADC_STATE_ERROR_CONFIG);
 1158              		.loc 1 654 5
ARM GAS  C:\Users\danie\AppData\Local\Temp\cczXkyFe.s 			page 33


 1159 0072 7B68     		ldr	r3, [r7, #4]
 1160 0074 9B6A     		ldr	r3, [r3, #40]
 1161 0076 43F02002 		orr	r2, r3, #32
 1162 007a 7B68     		ldr	r3, [r7, #4]
 1163 007c 9A62     		str	r2, [r3, #40]
 655:Drivers/STM32F1xx_HAL_Driver/Src/stm32f1xx_hal_adc_ex.c ****       
 656:Drivers/STM32F1xx_HAL_Driver/Src/stm32f1xx_hal_adc_ex.c ****     tmp_hal_status = HAL_ERROR;
 1164              		.loc 1 656 20
 1165 007e 0123     		movs	r3, #1
 1166 0080 FB73     		strb	r3, [r7, #15]
 1167              	.L75:
 657:Drivers/STM32F1xx_HAL_Driver/Src/stm32f1xx_hal_adc_ex.c ****   }
 658:Drivers/STM32F1xx_HAL_Driver/Src/stm32f1xx_hal_adc_ex.c ****   
 659:Drivers/STM32F1xx_HAL_Driver/Src/stm32f1xx_hal_adc_ex.c ****   /* Process unlocked */
 660:Drivers/STM32F1xx_HAL_Driver/Src/stm32f1xx_hal_adc_ex.c ****   __HAL_UNLOCK(hadc);
 1168              		.loc 1 660 3
 1169 0082 7B68     		ldr	r3, [r7, #4]
 1170 0084 0022     		movs	r2, #0
 1171 0086 83F82420 		strb	r2, [r3, #36]
 661:Drivers/STM32F1xx_HAL_Driver/Src/stm32f1xx_hal_adc_ex.c ****   
 662:Drivers/STM32F1xx_HAL_Driver/Src/stm32f1xx_hal_adc_ex.c ****   /* Return function status */
 663:Drivers/STM32F1xx_HAL_Driver/Src/stm32f1xx_hal_adc_ex.c ****   return tmp_hal_status;
 1172              		.loc 1 663 10
 1173 008a FB7B     		ldrb	r3, [r7, #15]	@ zero_extendqisi2
 1174              	.L72:
 664:Drivers/STM32F1xx_HAL_Driver/Src/stm32f1xx_hal_adc_ex.c **** }
 1175              		.loc 1 664 1
 1176 008c 1846     		mov	r0, r3
 1177 008e 1037     		adds	r7, r7, #16
 1178              	.LCFI28:
 1179              		.cfi_def_cfa_offset 8
 1180 0090 BD46     		mov	sp, r7
 1181              	.LCFI29:
 1182              		.cfi_def_cfa_register 13
 1183              		@ sp needed
 1184 0092 80BD     		pop	{r7, pc}
 1185              		.cfi_endproc
 1186              	.LFE70:
 1188              		.section	.text.HAL_ADCEx_MultiModeStart_DMA,"ax",%progbits
 1189              		.align	1
 1190              		.global	HAL_ADCEx_MultiModeStart_DMA
 1191              		.syntax unified
 1192              		.thumb
 1193              		.thumb_func
 1194              		.fpu softvfp
 1196              	HAL_ADCEx_MultiModeStart_DMA:
 1197              	.LFB71:
 665:Drivers/STM32F1xx_HAL_Driver/Src/stm32f1xx_hal_adc_ex.c **** 
 666:Drivers/STM32F1xx_HAL_Driver/Src/stm32f1xx_hal_adc_ex.c **** #if defined (STM32F103x6) || defined (STM32F103xB) || defined (STM32F105xC) || defined (STM32F107xC
 667:Drivers/STM32F1xx_HAL_Driver/Src/stm32f1xx_hal_adc_ex.c **** /**
 668:Drivers/STM32F1xx_HAL_Driver/Src/stm32f1xx_hal_adc_ex.c ****   * @brief  Enables ADC, starts conversion of regular group and transfers result
 669:Drivers/STM32F1xx_HAL_Driver/Src/stm32f1xx_hal_adc_ex.c ****   *         through DMA.
 670:Drivers/STM32F1xx_HAL_Driver/Src/stm32f1xx_hal_adc_ex.c ****   *         Multimode must have been previously configured using 
 671:Drivers/STM32F1xx_HAL_Driver/Src/stm32f1xx_hal_adc_ex.c ****   *         HAL_ADCEx_MultiModeConfigChannel() function.
 672:Drivers/STM32F1xx_HAL_Driver/Src/stm32f1xx_hal_adc_ex.c ****   *         Interruptions enabled in this function:
 673:Drivers/STM32F1xx_HAL_Driver/Src/stm32f1xx_hal_adc_ex.c ****   *          - DMA transfer complete
 674:Drivers/STM32F1xx_HAL_Driver/Src/stm32f1xx_hal_adc_ex.c ****   *          - DMA half transfer
ARM GAS  C:\Users\danie\AppData\Local\Temp\cczXkyFe.s 			page 34


 675:Drivers/STM32F1xx_HAL_Driver/Src/stm32f1xx_hal_adc_ex.c ****   *         Each of these interruptions has its dedicated callback function.
 676:Drivers/STM32F1xx_HAL_Driver/Src/stm32f1xx_hal_adc_ex.c ****   * @note:  On STM32F1 devices, ADC slave regular group must be configured 
 677:Drivers/STM32F1xx_HAL_Driver/Src/stm32f1xx_hal_adc_ex.c ****   *         with conversion trigger ADC_SOFTWARE_START.
 678:Drivers/STM32F1xx_HAL_Driver/Src/stm32f1xx_hal_adc_ex.c ****   * @note:  ADC slave can be enabled preliminarily using single-mode  
 679:Drivers/STM32F1xx_HAL_Driver/Src/stm32f1xx_hal_adc_ex.c ****   *         HAL_ADC_Start() function.
 680:Drivers/STM32F1xx_HAL_Driver/Src/stm32f1xx_hal_adc_ex.c ****   * @param  hadc: ADC handle of ADC master (handle of ADC slave must not be used)
 681:Drivers/STM32F1xx_HAL_Driver/Src/stm32f1xx_hal_adc_ex.c ****   * @param  pData: The destination Buffer address.
 682:Drivers/STM32F1xx_HAL_Driver/Src/stm32f1xx_hal_adc_ex.c ****   * @param  Length: The length of data to be transferred from ADC peripheral to memory.
 683:Drivers/STM32F1xx_HAL_Driver/Src/stm32f1xx_hal_adc_ex.c ****   * @retval None
 684:Drivers/STM32F1xx_HAL_Driver/Src/stm32f1xx_hal_adc_ex.c ****   */
 685:Drivers/STM32F1xx_HAL_Driver/Src/stm32f1xx_hal_adc_ex.c **** HAL_StatusTypeDef HAL_ADCEx_MultiModeStart_DMA(ADC_HandleTypeDef* hadc, uint32_t* pData, uint32_t L
 686:Drivers/STM32F1xx_HAL_Driver/Src/stm32f1xx_hal_adc_ex.c **** {
 1198              		.loc 1 686 1
 1199              		.cfi_startproc
 1200              		@ args = 0, pretend = 0, frame = 72
 1201              		@ frame_needed = 1, uses_anonymous_args = 0
 1202 0000 80B5     		push	{r7, lr}
 1203              	.LCFI30:
 1204              		.cfi_def_cfa_offset 8
 1205              		.cfi_offset 7, -8
 1206              		.cfi_offset 14, -4
 1207 0002 92B0     		sub	sp, sp, #72
 1208              	.LCFI31:
 1209              		.cfi_def_cfa_offset 80
 1210 0004 00AF     		add	r7, sp, #0
 1211              	.LCFI32:
 1212              		.cfi_def_cfa_register 7
 1213 0006 F860     		str	r0, [r7, #12]
 1214 0008 B960     		str	r1, [r7, #8]
 1215 000a 7A60     		str	r2, [r7, #4]
 687:Drivers/STM32F1xx_HAL_Driver/Src/stm32f1xx_hal_adc_ex.c ****   HAL_StatusTypeDef tmp_hal_status = HAL_OK;
 1216              		.loc 1 687 21
 1217 000c 0023     		movs	r3, #0
 1218 000e 87F84730 		strb	r3, [r7, #71]
 688:Drivers/STM32F1xx_HAL_Driver/Src/stm32f1xx_hal_adc_ex.c ****   ADC_HandleTypeDef tmphadcSlave={0};
 1219              		.loc 1 688 21
 1220 0012 07F11403 		add	r3, r7, #20
 1221 0016 3022     		movs	r2, #48
 1222 0018 0021     		movs	r1, #0
 1223 001a 1846     		mov	r0, r3
 1224 001c FFF7FEFF 		bl	memset
 689:Drivers/STM32F1xx_HAL_Driver/Src/stm32f1xx_hal_adc_ex.c **** 
 690:Drivers/STM32F1xx_HAL_Driver/Src/stm32f1xx_hal_adc_ex.c ****   /* Check the parameters */
 691:Drivers/STM32F1xx_HAL_Driver/Src/stm32f1xx_hal_adc_ex.c ****   assert_param(IS_ADC_MULTIMODE_MASTER_INSTANCE(hadc->Instance));
 692:Drivers/STM32F1xx_HAL_Driver/Src/stm32f1xx_hal_adc_ex.c ****   assert_param(IS_FUNCTIONAL_STATE(hadc->Init.ContinuousConvMode));
 693:Drivers/STM32F1xx_HAL_Driver/Src/stm32f1xx_hal_adc_ex.c ****   
 694:Drivers/STM32F1xx_HAL_Driver/Src/stm32f1xx_hal_adc_ex.c ****   /* Process locked */
 695:Drivers/STM32F1xx_HAL_Driver/Src/stm32f1xx_hal_adc_ex.c ****   __HAL_LOCK(hadc);
 1225              		.loc 1 695 3
 1226 0020 FB68     		ldr	r3, [r7, #12]
 1227 0022 93F82430 		ldrb	r3, [r3, #36]	@ zero_extendqisi2
 1228 0026 012B     		cmp	r3, #1
 1229 0028 01D1     		bne	.L77
 1230              		.loc 1 695 3 is_stmt 0 discriminator 1
 1231 002a 0223     		movs	r3, #2
 1232 002c 8FE0     		b	.L85
 1233              	.L77:
ARM GAS  C:\Users\danie\AppData\Local\Temp\cczXkyFe.s 			page 35


 1234              		.loc 1 695 3 discriminator 2
 1235 002e FB68     		ldr	r3, [r7, #12]
 1236 0030 0122     		movs	r2, #1
 1237 0032 83F82420 		strb	r2, [r3, #36]
 696:Drivers/STM32F1xx_HAL_Driver/Src/stm32f1xx_hal_adc_ex.c **** 
 697:Drivers/STM32F1xx_HAL_Driver/Src/stm32f1xx_hal_adc_ex.c ****   /* Set a temporary handle of the ADC slave associated to the ADC master     */
 698:Drivers/STM32F1xx_HAL_Driver/Src/stm32f1xx_hal_adc_ex.c ****   ADC_MULTI_SLAVE(hadc, &tmphadcSlave);
 1238              		.loc 1 698 3 is_stmt 1 discriminator 2
 1239 0036 484B     		ldr	r3, .L86
 1240 0038 7B61     		str	r3, [r7, #20]
 699:Drivers/STM32F1xx_HAL_Driver/Src/stm32f1xx_hal_adc_ex.c ****   
 700:Drivers/STM32F1xx_HAL_Driver/Src/stm32f1xx_hal_adc_ex.c ****   /* On STM32F1 devices, ADC slave regular group must be configured with      */
 701:Drivers/STM32F1xx_HAL_Driver/Src/stm32f1xx_hal_adc_ex.c ****   /* conversion trigger ADC_SOFTWARE_START.                                   */
 702:Drivers/STM32F1xx_HAL_Driver/Src/stm32f1xx_hal_adc_ex.c ****   /* Note: External trigger of ADC slave must be enabled, it is already done  */
 703:Drivers/STM32F1xx_HAL_Driver/Src/stm32f1xx_hal_adc_ex.c ****   /*       into function "HAL_ADC_Init()".                                    */
 704:Drivers/STM32F1xx_HAL_Driver/Src/stm32f1xx_hal_adc_ex.c ****   if(!ADC_IS_SOFTWARE_START_REGULAR(&tmphadcSlave))  
 1241              		.loc 1 704 7 discriminator 2
 1242 003a 7B69     		ldr	r3, [r7, #20]
 1243 003c 9B68     		ldr	r3, [r3, #8]
 1244 003e 03F46023 		and	r3, r3, #917504
 1245              		.loc 1 704 5 discriminator 2
 1246 0042 B3F5602F 		cmp	r3, #917504
 1247 0046 0BD0     		beq	.L79
 705:Drivers/STM32F1xx_HAL_Driver/Src/stm32f1xx_hal_adc_ex.c ****   {
 706:Drivers/STM32F1xx_HAL_Driver/Src/stm32f1xx_hal_adc_ex.c ****     /* Update ADC state machine to error */
 707:Drivers/STM32F1xx_HAL_Driver/Src/stm32f1xx_hal_adc_ex.c ****     SET_BIT(hadc->State, HAL_ADC_STATE_ERROR_CONFIG);
 1248              		.loc 1 707 5
 1249 0048 FB68     		ldr	r3, [r7, #12]
 1250 004a 9B6A     		ldr	r3, [r3, #40]
 1251 004c 43F02002 		orr	r2, r3, #32
 1252 0050 FB68     		ldr	r3, [r7, #12]
 1253 0052 9A62     		str	r2, [r3, #40]
 708:Drivers/STM32F1xx_HAL_Driver/Src/stm32f1xx_hal_adc_ex.c ****     
 709:Drivers/STM32F1xx_HAL_Driver/Src/stm32f1xx_hal_adc_ex.c ****     /* Process unlocked */
 710:Drivers/STM32F1xx_HAL_Driver/Src/stm32f1xx_hal_adc_ex.c ****     __HAL_UNLOCK(hadc);
 1254              		.loc 1 710 5
 1255 0054 FB68     		ldr	r3, [r7, #12]
 1256 0056 0022     		movs	r2, #0
 1257 0058 83F82420 		strb	r2, [r3, #36]
 711:Drivers/STM32F1xx_HAL_Driver/Src/stm32f1xx_hal_adc_ex.c ****     
 712:Drivers/STM32F1xx_HAL_Driver/Src/stm32f1xx_hal_adc_ex.c ****     return HAL_ERROR;
 1258              		.loc 1 712 12
 1259 005c 0123     		movs	r3, #1
 1260 005e 76E0     		b	.L85
 1261              	.L79:
 713:Drivers/STM32F1xx_HAL_Driver/Src/stm32f1xx_hal_adc_ex.c ****   }
 714:Drivers/STM32F1xx_HAL_Driver/Src/stm32f1xx_hal_adc_ex.c ****   
 715:Drivers/STM32F1xx_HAL_Driver/Src/stm32f1xx_hal_adc_ex.c ****   /* Enable the ADC peripherals: master and slave (in case if not already     */
 716:Drivers/STM32F1xx_HAL_Driver/Src/stm32f1xx_hal_adc_ex.c ****   /* enabled previously)                                                      */
 717:Drivers/STM32F1xx_HAL_Driver/Src/stm32f1xx_hal_adc_ex.c ****   tmp_hal_status = ADC_Enable(hadc);
 1262              		.loc 1 717 20
 1263 0060 F868     		ldr	r0, [r7, #12]
 1264 0062 FFF7FEFF 		bl	ADC_Enable
 1265 0066 0346     		mov	r3, r0
 1266 0068 87F84730 		strb	r3, [r7, #71]
 718:Drivers/STM32F1xx_HAL_Driver/Src/stm32f1xx_hal_adc_ex.c ****   if (tmp_hal_status == HAL_OK)
 1267              		.loc 1 718 6
ARM GAS  C:\Users\danie\AppData\Local\Temp\cczXkyFe.s 			page 36


 1268 006c 97F84730 		ldrb	r3, [r7, #71]	@ zero_extendqisi2
 1269 0070 002B     		cmp	r3, #0
 1270 0072 07D1     		bne	.L80
 719:Drivers/STM32F1xx_HAL_Driver/Src/stm32f1xx_hal_adc_ex.c ****   {
 720:Drivers/STM32F1xx_HAL_Driver/Src/stm32f1xx_hal_adc_ex.c ****     tmp_hal_status = ADC_Enable(&tmphadcSlave);
 1271              		.loc 1 720 22
 1272 0074 07F11403 		add	r3, r7, #20
 1273 0078 1846     		mov	r0, r3
 1274 007a FFF7FEFF 		bl	ADC_Enable
 1275 007e 0346     		mov	r3, r0
 1276 0080 87F84730 		strb	r3, [r7, #71]
 1277              	.L80:
 721:Drivers/STM32F1xx_HAL_Driver/Src/stm32f1xx_hal_adc_ex.c ****   }
 722:Drivers/STM32F1xx_HAL_Driver/Src/stm32f1xx_hal_adc_ex.c ****   
 723:Drivers/STM32F1xx_HAL_Driver/Src/stm32f1xx_hal_adc_ex.c ****   /* Start conversion if all ADCs of multimode are effectively enabled */
 724:Drivers/STM32F1xx_HAL_Driver/Src/stm32f1xx_hal_adc_ex.c ****   if (tmp_hal_status == HAL_OK)
 1278              		.loc 1 724 6
 1279 0084 97F84730 		ldrb	r3, [r7, #71]	@ zero_extendqisi2
 1280 0088 002B     		cmp	r3, #0
 1281 008a 5AD1     		bne	.L81
 725:Drivers/STM32F1xx_HAL_Driver/Src/stm32f1xx_hal_adc_ex.c ****   {
 726:Drivers/STM32F1xx_HAL_Driver/Src/stm32f1xx_hal_adc_ex.c ****     /* Set ADC state (ADC master)                                             */
 727:Drivers/STM32F1xx_HAL_Driver/Src/stm32f1xx_hal_adc_ex.c ****     /* - Clear state bitfield related to regular group conversion results     */
 728:Drivers/STM32F1xx_HAL_Driver/Src/stm32f1xx_hal_adc_ex.c ****     /* - Set state bitfield related to regular operation                      */
 729:Drivers/STM32F1xx_HAL_Driver/Src/stm32f1xx_hal_adc_ex.c ****     ADC_STATE_CLR_SET(hadc->State,
 1282              		.loc 1 729 5
 1283 008c FB68     		ldr	r3, [r7, #12]
 1284 008e 9A6A     		ldr	r2, [r3, #40]
 1285 0090 324B     		ldr	r3, .L86+4
 1286 0092 1340     		ands	r3, r3, r2
 1287 0094 43F48072 		orr	r2, r3, #256
 1288 0098 FB68     		ldr	r3, [r7, #12]
 1289 009a 9A62     		str	r2, [r3, #40]
 730:Drivers/STM32F1xx_HAL_Driver/Src/stm32f1xx_hal_adc_ex.c ****                       HAL_ADC_STATE_READY | HAL_ADC_STATE_REG_EOC | HAL_ADC_STATE_MULTIMODE_SLAVE,
 731:Drivers/STM32F1xx_HAL_Driver/Src/stm32f1xx_hal_adc_ex.c ****                       HAL_ADC_STATE_REG_BUSY);
 732:Drivers/STM32F1xx_HAL_Driver/Src/stm32f1xx_hal_adc_ex.c ****       
 733:Drivers/STM32F1xx_HAL_Driver/Src/stm32f1xx_hal_adc_ex.c ****     /* If conversions on group regular are also triggering group injected,    */
 734:Drivers/STM32F1xx_HAL_Driver/Src/stm32f1xx_hal_adc_ex.c ****     /* update ADC state.                                                      */
 735:Drivers/STM32F1xx_HAL_Driver/Src/stm32f1xx_hal_adc_ex.c ****     if (READ_BIT(hadc->Instance->CR1, ADC_CR1_JAUTO) != RESET)
 1290              		.loc 1 735 9
 1291 009c FB68     		ldr	r3, [r7, #12]
 1292 009e 1B68     		ldr	r3, [r3]
 1293 00a0 5B68     		ldr	r3, [r3, #4]
 1294 00a2 03F48063 		and	r3, r3, #1024
 1295              		.loc 1 735 8
 1296 00a6 002B     		cmp	r3, #0
 1297 00a8 07D0     		beq	.L82
 736:Drivers/STM32F1xx_HAL_Driver/Src/stm32f1xx_hal_adc_ex.c ****     {
 737:Drivers/STM32F1xx_HAL_Driver/Src/stm32f1xx_hal_adc_ex.c ****       ADC_STATE_CLR_SET(hadc->State, HAL_ADC_STATE_INJ_EOC, HAL_ADC_STATE_INJ_BUSY);  
 1298              		.loc 1 737 7
 1299 00aa FB68     		ldr	r3, [r7, #12]
 1300 00ac 9B6A     		ldr	r3, [r3, #40]
 1301 00ae 23F44053 		bic	r3, r3, #12288
 1302 00b2 43F48052 		orr	r2, r3, #4096
 1303 00b6 FB68     		ldr	r3, [r7, #12]
 1304 00b8 9A62     		str	r2, [r3, #40]
 1305              	.L82:
ARM GAS  C:\Users\danie\AppData\Local\Temp\cczXkyFe.s 			page 37


 738:Drivers/STM32F1xx_HAL_Driver/Src/stm32f1xx_hal_adc_ex.c ****     }
 739:Drivers/STM32F1xx_HAL_Driver/Src/stm32f1xx_hal_adc_ex.c ****     
 740:Drivers/STM32F1xx_HAL_Driver/Src/stm32f1xx_hal_adc_ex.c ****     /* Process unlocked */
 741:Drivers/STM32F1xx_HAL_Driver/Src/stm32f1xx_hal_adc_ex.c ****     /* Unlock before starting ADC conversions: in case of potential           */
 742:Drivers/STM32F1xx_HAL_Driver/Src/stm32f1xx_hal_adc_ex.c ****     /* interruption, to let the process to ADC IRQ Handler.                   */
 743:Drivers/STM32F1xx_HAL_Driver/Src/stm32f1xx_hal_adc_ex.c ****     __HAL_UNLOCK(hadc);
 1306              		.loc 1 743 5
 1307 00ba FB68     		ldr	r3, [r7, #12]
 1308 00bc 0022     		movs	r2, #0
 1309 00be 83F82420 		strb	r2, [r3, #36]
 744:Drivers/STM32F1xx_HAL_Driver/Src/stm32f1xx_hal_adc_ex.c ****     
 745:Drivers/STM32F1xx_HAL_Driver/Src/stm32f1xx_hal_adc_ex.c ****     /* Set ADC error code to none */
 746:Drivers/STM32F1xx_HAL_Driver/Src/stm32f1xx_hal_adc_ex.c ****     ADC_CLEAR_ERRORCODE(hadc);
 1310              		.loc 1 746 5
 1311 00c2 FB68     		ldr	r3, [r7, #12]
 1312 00c4 0022     		movs	r2, #0
 1313 00c6 DA62     		str	r2, [r3, #44]
 747:Drivers/STM32F1xx_HAL_Driver/Src/stm32f1xx_hal_adc_ex.c ****     
 748:Drivers/STM32F1xx_HAL_Driver/Src/stm32f1xx_hal_adc_ex.c ****     
 749:Drivers/STM32F1xx_HAL_Driver/Src/stm32f1xx_hal_adc_ex.c ****     /* Set the DMA transfer complete callback */
 750:Drivers/STM32F1xx_HAL_Driver/Src/stm32f1xx_hal_adc_ex.c ****     hadc->DMA_Handle->XferCpltCallback = ADC_DMAConvCplt;
 1314              		.loc 1 750 9
 1315 00c8 FB68     		ldr	r3, [r7, #12]
 1316 00ca 1B6A     		ldr	r3, [r3, #32]
 1317              		.loc 1 750 40
 1318 00cc 244A     		ldr	r2, .L86+8
 1319 00ce 9A62     		str	r2, [r3, #40]
 751:Drivers/STM32F1xx_HAL_Driver/Src/stm32f1xx_hal_adc_ex.c ****        
 752:Drivers/STM32F1xx_HAL_Driver/Src/stm32f1xx_hal_adc_ex.c ****     /* Set the DMA half transfer complete callback */
 753:Drivers/STM32F1xx_HAL_Driver/Src/stm32f1xx_hal_adc_ex.c ****     hadc->DMA_Handle->XferHalfCpltCallback = ADC_DMAHalfConvCplt;
 1320              		.loc 1 753 9
 1321 00d0 FB68     		ldr	r3, [r7, #12]
 1322 00d2 1B6A     		ldr	r3, [r3, #32]
 1323              		.loc 1 753 44
 1324 00d4 234A     		ldr	r2, .L86+12
 1325 00d6 DA62     		str	r2, [r3, #44]
 754:Drivers/STM32F1xx_HAL_Driver/Src/stm32f1xx_hal_adc_ex.c ****     
 755:Drivers/STM32F1xx_HAL_Driver/Src/stm32f1xx_hal_adc_ex.c ****     /* Set the DMA error callback */
 756:Drivers/STM32F1xx_HAL_Driver/Src/stm32f1xx_hal_adc_ex.c ****     hadc->DMA_Handle->XferErrorCallback = ADC_DMAError;
 1326              		.loc 1 756 9
 1327 00d8 FB68     		ldr	r3, [r7, #12]
 1328 00da 1B6A     		ldr	r3, [r3, #32]
 1329              		.loc 1 756 41
 1330 00dc 224A     		ldr	r2, .L86+16
 1331 00de 1A63     		str	r2, [r3, #48]
 757:Drivers/STM32F1xx_HAL_Driver/Src/stm32f1xx_hal_adc_ex.c **** 
 758:Drivers/STM32F1xx_HAL_Driver/Src/stm32f1xx_hal_adc_ex.c ****     
 759:Drivers/STM32F1xx_HAL_Driver/Src/stm32f1xx_hal_adc_ex.c ****     /* Manage ADC and DMA start: ADC overrun interruption, DMA start, ADC     */
 760:Drivers/STM32F1xx_HAL_Driver/Src/stm32f1xx_hal_adc_ex.c ****     /* start (in case of SW start):                                           */
 761:Drivers/STM32F1xx_HAL_Driver/Src/stm32f1xx_hal_adc_ex.c ****     
 762:Drivers/STM32F1xx_HAL_Driver/Src/stm32f1xx_hal_adc_ex.c ****     /* Clear regular group conversion flag and overrun flag */
 763:Drivers/STM32F1xx_HAL_Driver/Src/stm32f1xx_hal_adc_ex.c ****     /* (To ensure of no unknown state from potential previous ADC operations) */
 764:Drivers/STM32F1xx_HAL_Driver/Src/stm32f1xx_hal_adc_ex.c ****     __HAL_ADC_CLEAR_FLAG(hadc, ADC_FLAG_EOC);
 1332              		.loc 1 764 5
 1333 00e0 FB68     		ldr	r3, [r7, #12]
 1334 00e2 1B68     		ldr	r3, [r3]
 1335 00e4 6FF00202 		mvn	r2, #2
ARM GAS  C:\Users\danie\AppData\Local\Temp\cczXkyFe.s 			page 38


 1336 00e8 1A60     		str	r2, [r3]
 765:Drivers/STM32F1xx_HAL_Driver/Src/stm32f1xx_hal_adc_ex.c ****     
 766:Drivers/STM32F1xx_HAL_Driver/Src/stm32f1xx_hal_adc_ex.c ****     /* Enable ADC DMA mode of ADC master */
 767:Drivers/STM32F1xx_HAL_Driver/Src/stm32f1xx_hal_adc_ex.c ****     SET_BIT(hadc->Instance->CR2, ADC_CR2_DMA);
 1337              		.loc 1 767 5
 1338 00ea FB68     		ldr	r3, [r7, #12]
 1339 00ec 1B68     		ldr	r3, [r3]
 1340 00ee 9A68     		ldr	r2, [r3, #8]
 1341 00f0 FB68     		ldr	r3, [r7, #12]
 1342 00f2 1B68     		ldr	r3, [r3]
 1343 00f4 42F48072 		orr	r2, r2, #256
 1344 00f8 9A60     		str	r2, [r3, #8]
 768:Drivers/STM32F1xx_HAL_Driver/Src/stm32f1xx_hal_adc_ex.c ****     
 769:Drivers/STM32F1xx_HAL_Driver/Src/stm32f1xx_hal_adc_ex.c ****     /* Start the DMA channel */
 770:Drivers/STM32F1xx_HAL_Driver/Src/stm32f1xx_hal_adc_ex.c ****     HAL_DMA_Start_IT(hadc->DMA_Handle, (uint32_t)&hadc->Instance->DR, (uint32_t)pData, Length);
 1345              		.loc 1 770 5
 1346 00fa FB68     		ldr	r3, [r7, #12]
 1347 00fc 186A     		ldr	r0, [r3, #32]
 1348              		.loc 1 770 55
 1349 00fe FB68     		ldr	r3, [r7, #12]
 1350 0100 1B68     		ldr	r3, [r3]
 1351              		.loc 1 770 50
 1352 0102 4C33     		adds	r3, r3, #76
 1353              		.loc 1 770 5
 1354 0104 1946     		mov	r1, r3
 1355 0106 BA68     		ldr	r2, [r7, #8]
 1356 0108 7B68     		ldr	r3, [r7, #4]
 1357 010a FFF7FEFF 		bl	HAL_DMA_Start_IT
 771:Drivers/STM32F1xx_HAL_Driver/Src/stm32f1xx_hal_adc_ex.c ****     
 772:Drivers/STM32F1xx_HAL_Driver/Src/stm32f1xx_hal_adc_ex.c ****     /* Start conversion of regular group if software start has been selected. */
 773:Drivers/STM32F1xx_HAL_Driver/Src/stm32f1xx_hal_adc_ex.c ****     /* If external trigger has been selected, conversion will start at next   */
 774:Drivers/STM32F1xx_HAL_Driver/Src/stm32f1xx_hal_adc_ex.c ****     /* trigger event.                                                         */
 775:Drivers/STM32F1xx_HAL_Driver/Src/stm32f1xx_hal_adc_ex.c ****     /* Note: Alternate trigger for single conversion could be to force an     */
 776:Drivers/STM32F1xx_HAL_Driver/Src/stm32f1xx_hal_adc_ex.c ****     /*       additional set of bit ADON "hadc->Instance->CR2 |= ADC_CR2_ADON;"*/
 777:Drivers/STM32F1xx_HAL_Driver/Src/stm32f1xx_hal_adc_ex.c ****     if (ADC_IS_SOFTWARE_START_REGULAR(hadc))
 1358              		.loc 1 777 9
 1359 010e FB68     		ldr	r3, [r7, #12]
 1360 0110 1B68     		ldr	r3, [r3]
 1361 0112 9B68     		ldr	r3, [r3, #8]
 1362 0114 03F46023 		and	r3, r3, #917504
 1363              		.loc 1 777 8
 1364 0118 B3F5602F 		cmp	r3, #917504
 1365 011c 08D1     		bne	.L83
 778:Drivers/STM32F1xx_HAL_Driver/Src/stm32f1xx_hal_adc_ex.c ****     {
 779:Drivers/STM32F1xx_HAL_Driver/Src/stm32f1xx_hal_adc_ex.c ****       /* Start ADC conversion on regular group with SW start */
 780:Drivers/STM32F1xx_HAL_Driver/Src/stm32f1xx_hal_adc_ex.c ****       SET_BIT(hadc->Instance->CR2, (ADC_CR2_SWSTART | ADC_CR2_EXTTRIG));
 1366              		.loc 1 780 7
 1367 011e FB68     		ldr	r3, [r7, #12]
 1368 0120 1B68     		ldr	r3, [r3]
 1369 0122 9A68     		ldr	r2, [r3, #8]
 1370 0124 FB68     		ldr	r3, [r7, #12]
 1371 0126 1B68     		ldr	r3, [r3]
 1372 0128 42F4A002 		orr	r2, r2, #5242880
 1373 012c 9A60     		str	r2, [r3, #8]
 1374 012e 0CE0     		b	.L84
 1375              	.L83:
 781:Drivers/STM32F1xx_HAL_Driver/Src/stm32f1xx_hal_adc_ex.c ****     }
ARM GAS  C:\Users\danie\AppData\Local\Temp\cczXkyFe.s 			page 39


 782:Drivers/STM32F1xx_HAL_Driver/Src/stm32f1xx_hal_adc_ex.c ****     else
 783:Drivers/STM32F1xx_HAL_Driver/Src/stm32f1xx_hal_adc_ex.c ****     {
 784:Drivers/STM32F1xx_HAL_Driver/Src/stm32f1xx_hal_adc_ex.c ****       /* Start ADC conversion on regular group with external trigger */
 785:Drivers/STM32F1xx_HAL_Driver/Src/stm32f1xx_hal_adc_ex.c ****       SET_BIT(hadc->Instance->CR2, ADC_CR2_EXTTRIG);
 1376              		.loc 1 785 7
 1377 0130 FB68     		ldr	r3, [r7, #12]
 1378 0132 1B68     		ldr	r3, [r3]
 1379 0134 9A68     		ldr	r2, [r3, #8]
 1380 0136 FB68     		ldr	r3, [r7, #12]
 1381 0138 1B68     		ldr	r3, [r3]
 1382 013a 42F48012 		orr	r2, r2, #1048576
 1383 013e 9A60     		str	r2, [r3, #8]
 1384 0140 03E0     		b	.L84
 1385              	.L81:
 786:Drivers/STM32F1xx_HAL_Driver/Src/stm32f1xx_hal_adc_ex.c ****     }
 787:Drivers/STM32F1xx_HAL_Driver/Src/stm32f1xx_hal_adc_ex.c ****   }
 788:Drivers/STM32F1xx_HAL_Driver/Src/stm32f1xx_hal_adc_ex.c ****   else
 789:Drivers/STM32F1xx_HAL_Driver/Src/stm32f1xx_hal_adc_ex.c ****   {
 790:Drivers/STM32F1xx_HAL_Driver/Src/stm32f1xx_hal_adc_ex.c ****     /* Process unlocked */
 791:Drivers/STM32F1xx_HAL_Driver/Src/stm32f1xx_hal_adc_ex.c ****     __HAL_UNLOCK(hadc);
 1386              		.loc 1 791 5
 1387 0142 FB68     		ldr	r3, [r7, #12]
 1388 0144 0022     		movs	r2, #0
 1389 0146 83F82420 		strb	r2, [r3, #36]
 1390              	.L84:
 792:Drivers/STM32F1xx_HAL_Driver/Src/stm32f1xx_hal_adc_ex.c ****   }
 793:Drivers/STM32F1xx_HAL_Driver/Src/stm32f1xx_hal_adc_ex.c ****   
 794:Drivers/STM32F1xx_HAL_Driver/Src/stm32f1xx_hal_adc_ex.c ****   /* Return function status */
 795:Drivers/STM32F1xx_HAL_Driver/Src/stm32f1xx_hal_adc_ex.c ****   return tmp_hal_status;
 1391              		.loc 1 795 10
 1392 014a 97F84730 		ldrb	r3, [r7, #71]	@ zero_extendqisi2
 1393              	.L85:
 796:Drivers/STM32F1xx_HAL_Driver/Src/stm32f1xx_hal_adc_ex.c **** }
 1394              		.loc 1 796 1 discriminator 1
 1395 014e 1846     		mov	r0, r3
 1396 0150 4837     		adds	r7, r7, #72
 1397              	.LCFI33:
 1398              		.cfi_def_cfa_offset 8
 1399 0152 BD46     		mov	sp, r7
 1400              	.LCFI34:
 1401              		.cfi_def_cfa_register 13
 1402              		@ sp needed
 1403 0154 80BD     		pop	{r7, pc}
 1404              	.L87:
 1405 0156 00BF     		.align	2
 1406              	.L86:
 1407 0158 00280140 		.word	1073817600
 1408 015c FEFCEFFF 		.word	-1049346
 1409 0160 00000000 		.word	ADC_DMAConvCplt
 1410 0164 00000000 		.word	ADC_DMAHalfConvCplt
 1411 0168 00000000 		.word	ADC_DMAError
 1412              		.cfi_endproc
 1413              	.LFE71:
 1415              		.section	.text.HAL_ADCEx_MultiModeStop_DMA,"ax",%progbits
 1416              		.align	1
 1417              		.global	HAL_ADCEx_MultiModeStop_DMA
 1418              		.syntax unified
ARM GAS  C:\Users\danie\AppData\Local\Temp\cczXkyFe.s 			page 40


 1419              		.thumb
 1420              		.thumb_func
 1421              		.fpu softvfp
 1423              	HAL_ADCEx_MultiModeStop_DMA:
 1424              	.LFB72:
 797:Drivers/STM32F1xx_HAL_Driver/Src/stm32f1xx_hal_adc_ex.c **** 
 798:Drivers/STM32F1xx_HAL_Driver/Src/stm32f1xx_hal_adc_ex.c **** /**
 799:Drivers/STM32F1xx_HAL_Driver/Src/stm32f1xx_hal_adc_ex.c ****   * @brief  Stop ADC conversion of regular group (and injected channels in 
 800:Drivers/STM32F1xx_HAL_Driver/Src/stm32f1xx_hal_adc_ex.c ****   *         case of auto_injection mode), disable ADC DMA transfer, disable 
 801:Drivers/STM32F1xx_HAL_Driver/Src/stm32f1xx_hal_adc_ex.c ****   *         ADC peripheral.
 802:Drivers/STM32F1xx_HAL_Driver/Src/stm32f1xx_hal_adc_ex.c ****   * @note   Multimode is kept enabled after this function. To disable multimode 
 803:Drivers/STM32F1xx_HAL_Driver/Src/stm32f1xx_hal_adc_ex.c ****   *         (set with HAL_ADCEx_MultiModeConfigChannel(), ADC must be 
 804:Drivers/STM32F1xx_HAL_Driver/Src/stm32f1xx_hal_adc_ex.c ****   *         reinitialized using HAL_ADC_Init() or HAL_ADC_ReInit().
 805:Drivers/STM32F1xx_HAL_Driver/Src/stm32f1xx_hal_adc_ex.c ****   * @note   In case of DMA configured in circular mode, function 
 806:Drivers/STM32F1xx_HAL_Driver/Src/stm32f1xx_hal_adc_ex.c ****   *         HAL_ADC_Stop_DMA must be called after this function with handle of
 807:Drivers/STM32F1xx_HAL_Driver/Src/stm32f1xx_hal_adc_ex.c ****   *         ADC slave, to properly disable the DMA channel.
 808:Drivers/STM32F1xx_HAL_Driver/Src/stm32f1xx_hal_adc_ex.c ****   * @param  hadc: ADC handle of ADC master (handle of ADC slave must not be used)
 809:Drivers/STM32F1xx_HAL_Driver/Src/stm32f1xx_hal_adc_ex.c ****   * @retval None
 810:Drivers/STM32F1xx_HAL_Driver/Src/stm32f1xx_hal_adc_ex.c ****   */
 811:Drivers/STM32F1xx_HAL_Driver/Src/stm32f1xx_hal_adc_ex.c **** HAL_StatusTypeDef HAL_ADCEx_MultiModeStop_DMA(ADC_HandleTypeDef* hadc)
 812:Drivers/STM32F1xx_HAL_Driver/Src/stm32f1xx_hal_adc_ex.c **** {
 1425              		.loc 1 812 1
 1426              		.cfi_startproc
 1427              		@ args = 0, pretend = 0, frame = 64
 1428              		@ frame_needed = 1, uses_anonymous_args = 0
 1429 0000 80B5     		push	{r7, lr}
 1430              	.LCFI35:
 1431              		.cfi_def_cfa_offset 8
 1432              		.cfi_offset 7, -8
 1433              		.cfi_offset 14, -4
 1434 0002 90B0     		sub	sp, sp, #64
 1435              	.LCFI36:
 1436              		.cfi_def_cfa_offset 72
 1437 0004 00AF     		add	r7, sp, #0
 1438              	.LCFI37:
 1439              		.cfi_def_cfa_register 7
 1440 0006 7860     		str	r0, [r7, #4]
 813:Drivers/STM32F1xx_HAL_Driver/Src/stm32f1xx_hal_adc_ex.c ****   HAL_StatusTypeDef tmp_hal_status = HAL_OK;
 1441              		.loc 1 813 21
 1442 0008 0023     		movs	r3, #0
 1443 000a 87F83F30 		strb	r3, [r7, #63]
 814:Drivers/STM32F1xx_HAL_Driver/Src/stm32f1xx_hal_adc_ex.c ****   ADC_HandleTypeDef tmphadcSlave={0};
 1444              		.loc 1 814 21
 1445 000e 07F10C03 		add	r3, r7, #12
 1446 0012 3022     		movs	r2, #48
 1447 0014 0021     		movs	r1, #0
 1448 0016 1846     		mov	r0, r3
 1449 0018 FFF7FEFF 		bl	memset
 815:Drivers/STM32F1xx_HAL_Driver/Src/stm32f1xx_hal_adc_ex.c ****   
 816:Drivers/STM32F1xx_HAL_Driver/Src/stm32f1xx_hal_adc_ex.c ****   /* Check the parameters */
 817:Drivers/STM32F1xx_HAL_Driver/Src/stm32f1xx_hal_adc_ex.c ****   assert_param(IS_ADC_MULTIMODE_MASTER_INSTANCE(hadc->Instance));
 818:Drivers/STM32F1xx_HAL_Driver/Src/stm32f1xx_hal_adc_ex.c ****   
 819:Drivers/STM32F1xx_HAL_Driver/Src/stm32f1xx_hal_adc_ex.c ****   /* Process locked */
 820:Drivers/STM32F1xx_HAL_Driver/Src/stm32f1xx_hal_adc_ex.c ****   __HAL_LOCK(hadc);
 1450              		.loc 1 820 3
 1451 001c 7B68     		ldr	r3, [r7, #4]
 1452 001e 93F82430 		ldrb	r3, [r3, #36]	@ zero_extendqisi2
ARM GAS  C:\Users\danie\AppData\Local\Temp\cczXkyFe.s 			page 41


 1453 0022 012B     		cmp	r3, #1
 1454 0024 01D1     		bne	.L89
 1455              		.loc 1 820 3 is_stmt 0 discriminator 1
 1456 0026 0223     		movs	r3, #2
 1457 0028 4FE0     		b	.L93
 1458              	.L89:
 1459              		.loc 1 820 3 discriminator 2
 1460 002a 7B68     		ldr	r3, [r7, #4]
 1461 002c 0122     		movs	r2, #1
 1462 002e 83F82420 		strb	r2, [r3, #36]
 821:Drivers/STM32F1xx_HAL_Driver/Src/stm32f1xx_hal_adc_ex.c **** 
 822:Drivers/STM32F1xx_HAL_Driver/Src/stm32f1xx_hal_adc_ex.c ****   /* Stop potential conversion on going, on regular and injected groups */
 823:Drivers/STM32F1xx_HAL_Driver/Src/stm32f1xx_hal_adc_ex.c ****   /* Disable ADC master peripheral */
 824:Drivers/STM32F1xx_HAL_Driver/Src/stm32f1xx_hal_adc_ex.c ****   tmp_hal_status = ADC_ConversionStop_Disable(hadc);
 1463              		.loc 1 824 20 is_stmt 1 discriminator 2
 1464 0032 7868     		ldr	r0, [r7, #4]
 1465 0034 FFF7FEFF 		bl	ADC_ConversionStop_Disable
 1466 0038 0346     		mov	r3, r0
 1467 003a 87F83F30 		strb	r3, [r7, #63]
 825:Drivers/STM32F1xx_HAL_Driver/Src/stm32f1xx_hal_adc_ex.c ****   
 826:Drivers/STM32F1xx_HAL_Driver/Src/stm32f1xx_hal_adc_ex.c ****   /* Check if ADC is effectively disabled */
 827:Drivers/STM32F1xx_HAL_Driver/Src/stm32f1xx_hal_adc_ex.c ****   if(tmp_hal_status == HAL_OK)
 1468              		.loc 1 827 5 discriminator 2
 1469 003e 97F83F30 		ldrb	r3, [r7, #63]	@ zero_extendqisi2
 1470 0042 002B     		cmp	r3, #0
 1471 0044 3BD1     		bne	.L91
 828:Drivers/STM32F1xx_HAL_Driver/Src/stm32f1xx_hal_adc_ex.c ****   {
 829:Drivers/STM32F1xx_HAL_Driver/Src/stm32f1xx_hal_adc_ex.c ****     /* Set a temporary handle of the ADC slave associated to the ADC master   */
 830:Drivers/STM32F1xx_HAL_Driver/Src/stm32f1xx_hal_adc_ex.c ****     ADC_MULTI_SLAVE(hadc, &tmphadcSlave);
 1472              		.loc 1 830 5
 1473 0046 234B     		ldr	r3, .L94
 1474 0048 FB60     		str	r3, [r7, #12]
 831:Drivers/STM32F1xx_HAL_Driver/Src/stm32f1xx_hal_adc_ex.c **** 
 832:Drivers/STM32F1xx_HAL_Driver/Src/stm32f1xx_hal_adc_ex.c ****     /* Disable ADC slave peripheral */
 833:Drivers/STM32F1xx_HAL_Driver/Src/stm32f1xx_hal_adc_ex.c ****     tmp_hal_status = ADC_ConversionStop_Disable(&tmphadcSlave);
 1475              		.loc 1 833 22
 1476 004a 07F10C03 		add	r3, r7, #12
 1477 004e 1846     		mov	r0, r3
 1478 0050 FFF7FEFF 		bl	ADC_ConversionStop_Disable
 1479 0054 0346     		mov	r3, r0
 1480 0056 87F83F30 		strb	r3, [r7, #63]
 834:Drivers/STM32F1xx_HAL_Driver/Src/stm32f1xx_hal_adc_ex.c **** 
 835:Drivers/STM32F1xx_HAL_Driver/Src/stm32f1xx_hal_adc_ex.c ****     /* Check if ADC is effectively disabled */
 836:Drivers/STM32F1xx_HAL_Driver/Src/stm32f1xx_hal_adc_ex.c ****     if(tmp_hal_status != HAL_OK)
 1481              		.loc 1 836 7
 1482 005a 97F83F30 		ldrb	r3, [r7, #63]	@ zero_extendqisi2
 1483 005e 002B     		cmp	r3, #0
 1484 0060 0BD0     		beq	.L92
 837:Drivers/STM32F1xx_HAL_Driver/Src/stm32f1xx_hal_adc_ex.c ****     {
 838:Drivers/STM32F1xx_HAL_Driver/Src/stm32f1xx_hal_adc_ex.c ****       /* Update ADC state machine to error */
 839:Drivers/STM32F1xx_HAL_Driver/Src/stm32f1xx_hal_adc_ex.c ****       SET_BIT(hadc->State, HAL_ADC_STATE_ERROR_INTERNAL);
 1485              		.loc 1 839 7
 1486 0062 7B68     		ldr	r3, [r7, #4]
 1487 0064 9B6A     		ldr	r3, [r3, #40]
 1488 0066 43F01002 		orr	r2, r3, #16
 1489 006a 7B68     		ldr	r3, [r7, #4]
 1490 006c 9A62     		str	r2, [r3, #40]
ARM GAS  C:\Users\danie\AppData\Local\Temp\cczXkyFe.s 			page 42


 840:Drivers/STM32F1xx_HAL_Driver/Src/stm32f1xx_hal_adc_ex.c **** 
 841:Drivers/STM32F1xx_HAL_Driver/Src/stm32f1xx_hal_adc_ex.c ****       /* Process unlocked */
 842:Drivers/STM32F1xx_HAL_Driver/Src/stm32f1xx_hal_adc_ex.c ****       __HAL_UNLOCK(hadc);
 1491              		.loc 1 842 7
 1492 006e 7B68     		ldr	r3, [r7, #4]
 1493 0070 0022     		movs	r2, #0
 1494 0072 83F82420 		strb	r2, [r3, #36]
 843:Drivers/STM32F1xx_HAL_Driver/Src/stm32f1xx_hal_adc_ex.c **** 
 844:Drivers/STM32F1xx_HAL_Driver/Src/stm32f1xx_hal_adc_ex.c ****       return HAL_ERROR;
 1495              		.loc 1 844 14
 1496 0076 0123     		movs	r3, #1
 1497 0078 27E0     		b	.L93
 1498              	.L92:
 845:Drivers/STM32F1xx_HAL_Driver/Src/stm32f1xx_hal_adc_ex.c ****     }
 846:Drivers/STM32F1xx_HAL_Driver/Src/stm32f1xx_hal_adc_ex.c **** 
 847:Drivers/STM32F1xx_HAL_Driver/Src/stm32f1xx_hal_adc_ex.c ****     /* Disable ADC DMA mode */
 848:Drivers/STM32F1xx_HAL_Driver/Src/stm32f1xx_hal_adc_ex.c ****     CLEAR_BIT(hadc->Instance->CR2, ADC_CR2_DMA);
 1499              		.loc 1 848 5
 1500 007a 7B68     		ldr	r3, [r7, #4]
 1501 007c 1B68     		ldr	r3, [r3]
 1502 007e 9A68     		ldr	r2, [r3, #8]
 1503 0080 7B68     		ldr	r3, [r7, #4]
 1504 0082 1B68     		ldr	r3, [r3]
 1505 0084 22F48072 		bic	r2, r2, #256
 1506 0088 9A60     		str	r2, [r3, #8]
 849:Drivers/STM32F1xx_HAL_Driver/Src/stm32f1xx_hal_adc_ex.c ****     
 850:Drivers/STM32F1xx_HAL_Driver/Src/stm32f1xx_hal_adc_ex.c ****     /* Reset configuration of ADC DMA continuous request for dual mode */
 851:Drivers/STM32F1xx_HAL_Driver/Src/stm32f1xx_hal_adc_ex.c ****     CLEAR_BIT(hadc->Instance->CR1, ADC_CR1_DUALMOD);
 1507              		.loc 1 851 5
 1508 008a 7B68     		ldr	r3, [r7, #4]
 1509 008c 1B68     		ldr	r3, [r3]
 1510 008e 5A68     		ldr	r2, [r3, #4]
 1511 0090 7B68     		ldr	r3, [r7, #4]
 1512 0092 1B68     		ldr	r3, [r3]
 1513 0094 22F47022 		bic	r2, r2, #983040
 1514 0098 5A60     		str	r2, [r3, #4]
 852:Drivers/STM32F1xx_HAL_Driver/Src/stm32f1xx_hal_adc_ex.c ****         
 853:Drivers/STM32F1xx_HAL_Driver/Src/stm32f1xx_hal_adc_ex.c ****     /* Disable the DMA channel (in case of DMA in circular mode or stop while */
 854:Drivers/STM32F1xx_HAL_Driver/Src/stm32f1xx_hal_adc_ex.c ****     /* while DMA transfer is on going)                                        */
 855:Drivers/STM32F1xx_HAL_Driver/Src/stm32f1xx_hal_adc_ex.c ****     tmp_hal_status = HAL_DMA_Abort(hadc->DMA_Handle);
 1515              		.loc 1 855 22
 1516 009a 7B68     		ldr	r3, [r7, #4]
 1517 009c 1B6A     		ldr	r3, [r3, #32]
 1518 009e 1846     		mov	r0, r3
 1519 00a0 FFF7FEFF 		bl	HAL_DMA_Abort
 1520 00a4 0346     		mov	r3, r0
 1521 00a6 87F83F30 		strb	r3, [r7, #63]
 856:Drivers/STM32F1xx_HAL_Driver/Src/stm32f1xx_hal_adc_ex.c **** 
 857:Drivers/STM32F1xx_HAL_Driver/Src/stm32f1xx_hal_adc_ex.c ****     /* Change ADC state (ADC master) */
 858:Drivers/STM32F1xx_HAL_Driver/Src/stm32f1xx_hal_adc_ex.c ****     ADC_STATE_CLR_SET(hadc->State,
 1522              		.loc 1 858 5
 1523 00aa 7B68     		ldr	r3, [r7, #4]
 1524 00ac 9B6A     		ldr	r3, [r3, #40]
 1525 00ae 23F48853 		bic	r3, r3, #4352
 1526 00b2 23F00103 		bic	r3, r3, #1
 1527 00b6 43F00102 		orr	r2, r3, #1
 1528 00ba 7B68     		ldr	r3, [r7, #4]
ARM GAS  C:\Users\danie\AppData\Local\Temp\cczXkyFe.s 			page 43


 1529 00bc 9A62     		str	r2, [r3, #40]
 1530              	.L91:
 859:Drivers/STM32F1xx_HAL_Driver/Src/stm32f1xx_hal_adc_ex.c ****                       HAL_ADC_STATE_REG_BUSY | HAL_ADC_STATE_INJ_BUSY,
 860:Drivers/STM32F1xx_HAL_Driver/Src/stm32f1xx_hal_adc_ex.c ****                       HAL_ADC_STATE_READY);
 861:Drivers/STM32F1xx_HAL_Driver/Src/stm32f1xx_hal_adc_ex.c ****   }
 862:Drivers/STM32F1xx_HAL_Driver/Src/stm32f1xx_hal_adc_ex.c ****   
 863:Drivers/STM32F1xx_HAL_Driver/Src/stm32f1xx_hal_adc_ex.c ****   /* Process unlocked */
 864:Drivers/STM32F1xx_HAL_Driver/Src/stm32f1xx_hal_adc_ex.c ****   __HAL_UNLOCK(hadc);
 1531              		.loc 1 864 3
 1532 00be 7B68     		ldr	r3, [r7, #4]
 1533 00c0 0022     		movs	r2, #0
 1534 00c2 83F82420 		strb	r2, [r3, #36]
 865:Drivers/STM32F1xx_HAL_Driver/Src/stm32f1xx_hal_adc_ex.c ****   
 866:Drivers/STM32F1xx_HAL_Driver/Src/stm32f1xx_hal_adc_ex.c ****   /* Return function status */
 867:Drivers/STM32F1xx_HAL_Driver/Src/stm32f1xx_hal_adc_ex.c ****   return tmp_hal_status;
 1535              		.loc 1 867 10
 1536 00c6 97F83F30 		ldrb	r3, [r7, #63]	@ zero_extendqisi2
 1537              	.L93:
 868:Drivers/STM32F1xx_HAL_Driver/Src/stm32f1xx_hal_adc_ex.c **** }
 1538              		.loc 1 868 1 discriminator 1
 1539 00ca 1846     		mov	r0, r3
 1540 00cc 4037     		adds	r7, r7, #64
 1541              	.LCFI38:
 1542              		.cfi_def_cfa_offset 8
 1543 00ce BD46     		mov	sp, r7
 1544              	.LCFI39:
 1545              		.cfi_def_cfa_register 13
 1546              		@ sp needed
 1547 00d0 80BD     		pop	{r7, pc}
 1548              	.L95:
 1549 00d2 00BF     		.align	2
 1550              	.L94:
 1551 00d4 00280140 		.word	1073817600
 1552              		.cfi_endproc
 1553              	.LFE72:
 1555              		.section	.text.HAL_ADCEx_InjectedGetValue,"ax",%progbits
 1556              		.align	1
 1557              		.global	HAL_ADCEx_InjectedGetValue
 1558              		.syntax unified
 1559              		.thumb
 1560              		.thumb_func
 1561              		.fpu softvfp
 1563              	HAL_ADCEx_InjectedGetValue:
 1564              	.LFB73:
 869:Drivers/STM32F1xx_HAL_Driver/Src/stm32f1xx_hal_adc_ex.c **** #endif /* defined STM32F103x6 || defined STM32F103xB || defined STM32F105xC || defined STM32F107xC 
 870:Drivers/STM32F1xx_HAL_Driver/Src/stm32f1xx_hal_adc_ex.c **** 
 871:Drivers/STM32F1xx_HAL_Driver/Src/stm32f1xx_hal_adc_ex.c **** /**
 872:Drivers/STM32F1xx_HAL_Driver/Src/stm32f1xx_hal_adc_ex.c ****   * @brief  Get ADC injected group conversion result.
 873:Drivers/STM32F1xx_HAL_Driver/Src/stm32f1xx_hal_adc_ex.c ****   * @note   Reading register JDRx automatically clears ADC flag JEOC
 874:Drivers/STM32F1xx_HAL_Driver/Src/stm32f1xx_hal_adc_ex.c ****   *         (ADC group injected end of unitary conversion).
 875:Drivers/STM32F1xx_HAL_Driver/Src/stm32f1xx_hal_adc_ex.c ****   * @note   This function does not clear ADC flag JEOS 
 876:Drivers/STM32F1xx_HAL_Driver/Src/stm32f1xx_hal_adc_ex.c ****   *         (ADC group injected end of sequence conversion)
 877:Drivers/STM32F1xx_HAL_Driver/Src/stm32f1xx_hal_adc_ex.c ****   *         Occurrence of flag JEOS rising:
 878:Drivers/STM32F1xx_HAL_Driver/Src/stm32f1xx_hal_adc_ex.c ****   *          - If sequencer is composed of 1 rank, flag JEOS is equivalent
 879:Drivers/STM32F1xx_HAL_Driver/Src/stm32f1xx_hal_adc_ex.c ****   *            to flag JEOC.
 880:Drivers/STM32F1xx_HAL_Driver/Src/stm32f1xx_hal_adc_ex.c ****   *          - If sequencer is composed of several ranks, during the scan
 881:Drivers/STM32F1xx_HAL_Driver/Src/stm32f1xx_hal_adc_ex.c ****   *            sequence flag JEOC only is raised, at the end of the scan sequence
ARM GAS  C:\Users\danie\AppData\Local\Temp\cczXkyFe.s 			page 44


 882:Drivers/STM32F1xx_HAL_Driver/Src/stm32f1xx_hal_adc_ex.c ****   *            both flags JEOC and EOS are raised.
 883:Drivers/STM32F1xx_HAL_Driver/Src/stm32f1xx_hal_adc_ex.c ****   *         Flag JEOS must not be cleared by this function because
 884:Drivers/STM32F1xx_HAL_Driver/Src/stm32f1xx_hal_adc_ex.c ****   *         it would not be compliant with low power features
 885:Drivers/STM32F1xx_HAL_Driver/Src/stm32f1xx_hal_adc_ex.c ****   *         (feature low power auto-wait, not available on all STM32 families).
 886:Drivers/STM32F1xx_HAL_Driver/Src/stm32f1xx_hal_adc_ex.c ****   *         To clear this flag, either use function: 
 887:Drivers/STM32F1xx_HAL_Driver/Src/stm32f1xx_hal_adc_ex.c ****   *         in programming model IT: @ref HAL_ADC_IRQHandler(), in programming
 888:Drivers/STM32F1xx_HAL_Driver/Src/stm32f1xx_hal_adc_ex.c ****   *         model polling: @ref HAL_ADCEx_InjectedPollForConversion() 
 889:Drivers/STM32F1xx_HAL_Driver/Src/stm32f1xx_hal_adc_ex.c ****   *         or @ref __HAL_ADC_CLEAR_FLAG(&hadc, ADC_FLAG_JEOS).
 890:Drivers/STM32F1xx_HAL_Driver/Src/stm32f1xx_hal_adc_ex.c ****   * @param  hadc: ADC handle
 891:Drivers/STM32F1xx_HAL_Driver/Src/stm32f1xx_hal_adc_ex.c ****   * @param  InjectedRank: the converted ADC injected rank.
 892:Drivers/STM32F1xx_HAL_Driver/Src/stm32f1xx_hal_adc_ex.c ****   *          This parameter can be one of the following values:
 893:Drivers/STM32F1xx_HAL_Driver/Src/stm32f1xx_hal_adc_ex.c ****   *            @arg ADC_INJECTED_RANK_1: Injected Channel1 selected
 894:Drivers/STM32F1xx_HAL_Driver/Src/stm32f1xx_hal_adc_ex.c ****   *            @arg ADC_INJECTED_RANK_2: Injected Channel2 selected
 895:Drivers/STM32F1xx_HAL_Driver/Src/stm32f1xx_hal_adc_ex.c ****   *            @arg ADC_INJECTED_RANK_3: Injected Channel3 selected
 896:Drivers/STM32F1xx_HAL_Driver/Src/stm32f1xx_hal_adc_ex.c ****   *            @arg ADC_INJECTED_RANK_4: Injected Channel4 selected
 897:Drivers/STM32F1xx_HAL_Driver/Src/stm32f1xx_hal_adc_ex.c ****   * @retval ADC group injected conversion data
 898:Drivers/STM32F1xx_HAL_Driver/Src/stm32f1xx_hal_adc_ex.c ****   */
 899:Drivers/STM32F1xx_HAL_Driver/Src/stm32f1xx_hal_adc_ex.c **** uint32_t HAL_ADCEx_InjectedGetValue(ADC_HandleTypeDef* hadc, uint32_t InjectedRank)
 900:Drivers/STM32F1xx_HAL_Driver/Src/stm32f1xx_hal_adc_ex.c **** {
 1565              		.loc 1 900 1
 1566              		.cfi_startproc
 1567              		@ args = 0, pretend = 0, frame = 16
 1568              		@ frame_needed = 1, uses_anonymous_args = 0
 1569              		@ link register save eliminated.
 1570 0000 80B4     		push	{r7}
 1571              	.LCFI40:
 1572              		.cfi_def_cfa_offset 4
 1573              		.cfi_offset 7, -4
 1574 0002 85B0     		sub	sp, sp, #20
 1575              	.LCFI41:
 1576              		.cfi_def_cfa_offset 24
 1577 0004 00AF     		add	r7, sp, #0
 1578              	.LCFI42:
 1579              		.cfi_def_cfa_register 7
 1580 0006 7860     		str	r0, [r7, #4]
 1581 0008 3960     		str	r1, [r7]
 901:Drivers/STM32F1xx_HAL_Driver/Src/stm32f1xx_hal_adc_ex.c ****   uint32_t tmp_jdr = 0U;
 1582              		.loc 1 901 12
 1583 000a 0023     		movs	r3, #0
 1584 000c FB60     		str	r3, [r7, #12]
 902:Drivers/STM32F1xx_HAL_Driver/Src/stm32f1xx_hal_adc_ex.c ****   
 903:Drivers/STM32F1xx_HAL_Driver/Src/stm32f1xx_hal_adc_ex.c ****   /* Check the parameters */
 904:Drivers/STM32F1xx_HAL_Driver/Src/stm32f1xx_hal_adc_ex.c ****   assert_param(IS_ADC_ALL_INSTANCE(hadc->Instance));
 905:Drivers/STM32F1xx_HAL_Driver/Src/stm32f1xx_hal_adc_ex.c ****   assert_param(IS_ADC_INJECTED_RANK(InjectedRank));
 906:Drivers/STM32F1xx_HAL_Driver/Src/stm32f1xx_hal_adc_ex.c ****   
 907:Drivers/STM32F1xx_HAL_Driver/Src/stm32f1xx_hal_adc_ex.c ****   /* Get ADC converted value */ 
 908:Drivers/STM32F1xx_HAL_Driver/Src/stm32f1xx_hal_adc_ex.c ****   switch(InjectedRank)
 1585              		.loc 1 908 3
 1586 000e 3B68     		ldr	r3, [r7]
 1587 0010 042B     		cmp	r3, #4
 1588 0012 09D0     		beq	.L97
 1589 0014 3B68     		ldr	r3, [r7]
 1590 0016 042B     		cmp	r3, #4
 1591 0018 15D8     		bhi	.L98
 1592 001a 3B68     		ldr	r3, [r7]
 1593 001c 022B     		cmp	r3, #2
 1594 001e 0DD0     		beq	.L99
ARM GAS  C:\Users\danie\AppData\Local\Temp\cczXkyFe.s 			page 45


 1595 0020 3B68     		ldr	r3, [r7]
 1596 0022 032B     		cmp	r3, #3
 1597 0024 05D0     		beq	.L100
 1598 0026 0EE0     		b	.L98
 1599              	.L97:
 909:Drivers/STM32F1xx_HAL_Driver/Src/stm32f1xx_hal_adc_ex.c ****   {  
 910:Drivers/STM32F1xx_HAL_Driver/Src/stm32f1xx_hal_adc_ex.c ****     case ADC_INJECTED_RANK_4: 
 911:Drivers/STM32F1xx_HAL_Driver/Src/stm32f1xx_hal_adc_ex.c ****       tmp_jdr = hadc->Instance->JDR4;
 1600              		.loc 1 911 21
 1601 0028 7B68     		ldr	r3, [r7, #4]
 1602 002a 1B68     		ldr	r3, [r3]
 1603              		.loc 1 911 15
 1604 002c 9B6C     		ldr	r3, [r3, #72]
 1605 002e FB60     		str	r3, [r7, #12]
 912:Drivers/STM32F1xx_HAL_Driver/Src/stm32f1xx_hal_adc_ex.c ****       break;
 1606              		.loc 1 912 7
 1607 0030 0EE0     		b	.L101
 1608              	.L100:
 913:Drivers/STM32F1xx_HAL_Driver/Src/stm32f1xx_hal_adc_ex.c ****     case ADC_INJECTED_RANK_3: 
 914:Drivers/STM32F1xx_HAL_Driver/Src/stm32f1xx_hal_adc_ex.c ****       tmp_jdr = hadc->Instance->JDR3;
 1609              		.loc 1 914 21
 1610 0032 7B68     		ldr	r3, [r7, #4]
 1611 0034 1B68     		ldr	r3, [r3]
 1612              		.loc 1 914 15
 1613 0036 5B6C     		ldr	r3, [r3, #68]
 1614 0038 FB60     		str	r3, [r7, #12]
 915:Drivers/STM32F1xx_HAL_Driver/Src/stm32f1xx_hal_adc_ex.c ****       break;
 1615              		.loc 1 915 7
 1616 003a 09E0     		b	.L101
 1617              	.L99:
 916:Drivers/STM32F1xx_HAL_Driver/Src/stm32f1xx_hal_adc_ex.c ****     case ADC_INJECTED_RANK_2: 
 917:Drivers/STM32F1xx_HAL_Driver/Src/stm32f1xx_hal_adc_ex.c ****       tmp_jdr = hadc->Instance->JDR2;
 1618              		.loc 1 917 21
 1619 003c 7B68     		ldr	r3, [r7, #4]
 1620 003e 1B68     		ldr	r3, [r3]
 1621              		.loc 1 917 15
 1622 0040 1B6C     		ldr	r3, [r3, #64]
 1623 0042 FB60     		str	r3, [r7, #12]
 918:Drivers/STM32F1xx_HAL_Driver/Src/stm32f1xx_hal_adc_ex.c ****       break;
 1624              		.loc 1 918 7
 1625 0044 04E0     		b	.L101
 1626              	.L98:
 919:Drivers/STM32F1xx_HAL_Driver/Src/stm32f1xx_hal_adc_ex.c ****     case ADC_INJECTED_RANK_1:
 920:Drivers/STM32F1xx_HAL_Driver/Src/stm32f1xx_hal_adc_ex.c ****     default:
 921:Drivers/STM32F1xx_HAL_Driver/Src/stm32f1xx_hal_adc_ex.c ****       tmp_jdr = hadc->Instance->JDR1;
 1627              		.loc 1 921 21
 1628 0046 7B68     		ldr	r3, [r7, #4]
 1629 0048 1B68     		ldr	r3, [r3]
 1630              		.loc 1 921 15
 1631 004a DB6B     		ldr	r3, [r3, #60]
 1632 004c FB60     		str	r3, [r7, #12]
 922:Drivers/STM32F1xx_HAL_Driver/Src/stm32f1xx_hal_adc_ex.c ****       break;
 1633              		.loc 1 922 7
 1634 004e 00BF     		nop
 1635              	.L101:
 923:Drivers/STM32F1xx_HAL_Driver/Src/stm32f1xx_hal_adc_ex.c ****   }
 924:Drivers/STM32F1xx_HAL_Driver/Src/stm32f1xx_hal_adc_ex.c ****   
ARM GAS  C:\Users\danie\AppData\Local\Temp\cczXkyFe.s 			page 46


 925:Drivers/STM32F1xx_HAL_Driver/Src/stm32f1xx_hal_adc_ex.c ****   /* Return ADC converted value */ 
 926:Drivers/STM32F1xx_HAL_Driver/Src/stm32f1xx_hal_adc_ex.c ****   return tmp_jdr;
 1636              		.loc 1 926 10
 1637 0050 FB68     		ldr	r3, [r7, #12]
 927:Drivers/STM32F1xx_HAL_Driver/Src/stm32f1xx_hal_adc_ex.c **** }
 1638              		.loc 1 927 1
 1639 0052 1846     		mov	r0, r3
 1640 0054 1437     		adds	r7, r7, #20
 1641              	.LCFI43:
 1642              		.cfi_def_cfa_offset 4
 1643 0056 BD46     		mov	sp, r7
 1644              	.LCFI44:
 1645              		.cfi_def_cfa_register 13
 1646              		@ sp needed
 1647 0058 80BC     		pop	{r7}
 1648              	.LCFI45:
 1649              		.cfi_restore 7
 1650              		.cfi_def_cfa_offset 0
 1651 005a 7047     		bx	lr
 1652              		.cfi_endproc
 1653              	.LFE73:
 1655              		.section	.text.HAL_ADCEx_MultiModeGetValue,"ax",%progbits
 1656              		.align	1
 1657              		.global	HAL_ADCEx_MultiModeGetValue
 1658              		.syntax unified
 1659              		.thumb
 1660              		.thumb_func
 1661              		.fpu softvfp
 1663              	HAL_ADCEx_MultiModeGetValue:
 1664              	.LFB74:
 928:Drivers/STM32F1xx_HAL_Driver/Src/stm32f1xx_hal_adc_ex.c **** 
 929:Drivers/STM32F1xx_HAL_Driver/Src/stm32f1xx_hal_adc_ex.c **** #if defined (STM32F103x6) || defined (STM32F103xB) || defined (STM32F105xC) || defined (STM32F107xC
 930:Drivers/STM32F1xx_HAL_Driver/Src/stm32f1xx_hal_adc_ex.c **** /**
 931:Drivers/STM32F1xx_HAL_Driver/Src/stm32f1xx_hal_adc_ex.c ****   * @brief  Returns the last ADC Master&Slave regular conversions results data
 932:Drivers/STM32F1xx_HAL_Driver/Src/stm32f1xx_hal_adc_ex.c ****   *         in the selected multi mode.
 933:Drivers/STM32F1xx_HAL_Driver/Src/stm32f1xx_hal_adc_ex.c ****   * @param  hadc: ADC handle of ADC master (handle of ADC slave must not be used)
 934:Drivers/STM32F1xx_HAL_Driver/Src/stm32f1xx_hal_adc_ex.c ****   * @retval The converted data value.
 935:Drivers/STM32F1xx_HAL_Driver/Src/stm32f1xx_hal_adc_ex.c ****   */
 936:Drivers/STM32F1xx_HAL_Driver/Src/stm32f1xx_hal_adc_ex.c **** uint32_t HAL_ADCEx_MultiModeGetValue(ADC_HandleTypeDef* hadc)
 937:Drivers/STM32F1xx_HAL_Driver/Src/stm32f1xx_hal_adc_ex.c **** {
 1665              		.loc 1 937 1
 1666              		.cfi_startproc
 1667              		@ args = 0, pretend = 0, frame = 16
 1668              		@ frame_needed = 1, uses_anonymous_args = 0
 1669              		@ link register save eliminated.
 1670 0000 80B4     		push	{r7}
 1671              	.LCFI46:
 1672              		.cfi_def_cfa_offset 4
 1673              		.cfi_offset 7, -4
 1674 0002 85B0     		sub	sp, sp, #20
 1675              	.LCFI47:
 1676              		.cfi_def_cfa_offset 24
 1677 0004 00AF     		add	r7, sp, #0
 1678              	.LCFI48:
 1679              		.cfi_def_cfa_register 7
 1680 0006 7860     		str	r0, [r7, #4]
 938:Drivers/STM32F1xx_HAL_Driver/Src/stm32f1xx_hal_adc_ex.c ****   uint32_t tmpDR = 0U;
ARM GAS  C:\Users\danie\AppData\Local\Temp\cczXkyFe.s 			page 47


 1681              		.loc 1 938 12
 1682 0008 0023     		movs	r3, #0
 1683 000a FB60     		str	r3, [r7, #12]
 939:Drivers/STM32F1xx_HAL_Driver/Src/stm32f1xx_hal_adc_ex.c ****   
 940:Drivers/STM32F1xx_HAL_Driver/Src/stm32f1xx_hal_adc_ex.c ****   /* Check the parameters */
 941:Drivers/STM32F1xx_HAL_Driver/Src/stm32f1xx_hal_adc_ex.c ****   assert_param(IS_ADC_MULTIMODE_MASTER_INSTANCE(hadc->Instance));
 942:Drivers/STM32F1xx_HAL_Driver/Src/stm32f1xx_hal_adc_ex.c ****   
 943:Drivers/STM32F1xx_HAL_Driver/Src/stm32f1xx_hal_adc_ex.c ****   /* Check the parameters */
 944:Drivers/STM32F1xx_HAL_Driver/Src/stm32f1xx_hal_adc_ex.c ****   assert_param(IS_ADC_ALL_INSTANCE(hadc->Instance));
 945:Drivers/STM32F1xx_HAL_Driver/Src/stm32f1xx_hal_adc_ex.c **** 
 946:Drivers/STM32F1xx_HAL_Driver/Src/stm32f1xx_hal_adc_ex.c ****   /* Note: EOC flag is not cleared here by software because automatically     */
 947:Drivers/STM32F1xx_HAL_Driver/Src/stm32f1xx_hal_adc_ex.c ****   /*       cleared by hardware when reading register DR.                      */
 948:Drivers/STM32F1xx_HAL_Driver/Src/stm32f1xx_hal_adc_ex.c ****   
 949:Drivers/STM32F1xx_HAL_Driver/Src/stm32f1xx_hal_adc_ex.c ****   /* On STM32F1 devices, ADC1 data register DR contains ADC2 conversions      */
 950:Drivers/STM32F1xx_HAL_Driver/Src/stm32f1xx_hal_adc_ex.c ****   /* only if ADC1 DMA mode is enabled.                                        */
 951:Drivers/STM32F1xx_HAL_Driver/Src/stm32f1xx_hal_adc_ex.c ****   tmpDR = hadc->Instance->DR;
 1684              		.loc 1 951 15
 1685 000c 7B68     		ldr	r3, [r7, #4]
 1686 000e 1B68     		ldr	r3, [r3]
 1687              		.loc 1 951 9
 1688 0010 DB6C     		ldr	r3, [r3, #76]
 1689 0012 FB60     		str	r3, [r7, #12]
 952:Drivers/STM32F1xx_HAL_Driver/Src/stm32f1xx_hal_adc_ex.c **** 
 953:Drivers/STM32F1xx_HAL_Driver/Src/stm32f1xx_hal_adc_ex.c ****   if (HAL_IS_BIT_CLR(ADC1->CR2, ADC_CR2_DMA))
 1690              		.loc 1 953 7
 1691 0014 084B     		ldr	r3, .L106
 1692 0016 9B68     		ldr	r3, [r3, #8]
 1693 0018 03F48073 		and	r3, r3, #256
 1694              		.loc 1 953 6
 1695 001c 002B     		cmp	r3, #0
 1696 001e 05D1     		bne	.L104
 954:Drivers/STM32F1xx_HAL_Driver/Src/stm32f1xx_hal_adc_ex.c ****   {
 955:Drivers/STM32F1xx_HAL_Driver/Src/stm32f1xx_hal_adc_ex.c ****     tmpDR |= (ADC2->DR << 16U);
 1697              		.loc 1 955 19
 1698 0020 064B     		ldr	r3, .L106+4
 1699 0022 DB6C     		ldr	r3, [r3, #76]
 1700              		.loc 1 955 24
 1701 0024 1B04     		lsls	r3, r3, #16
 1702              		.loc 1 955 11
 1703 0026 FA68     		ldr	r2, [r7, #12]
 1704 0028 1343     		orrs	r3, r3, r2
 1705 002a FB60     		str	r3, [r7, #12]
 1706              	.L104:
 956:Drivers/STM32F1xx_HAL_Driver/Src/stm32f1xx_hal_adc_ex.c ****   }
 957:Drivers/STM32F1xx_HAL_Driver/Src/stm32f1xx_hal_adc_ex.c ****     
 958:Drivers/STM32F1xx_HAL_Driver/Src/stm32f1xx_hal_adc_ex.c ****   /* Return ADC converted value */ 
 959:Drivers/STM32F1xx_HAL_Driver/Src/stm32f1xx_hal_adc_ex.c ****   return tmpDR;
 1707              		.loc 1 959 10
 1708 002c FB68     		ldr	r3, [r7, #12]
 960:Drivers/STM32F1xx_HAL_Driver/Src/stm32f1xx_hal_adc_ex.c **** }
 1709              		.loc 1 960 1
 1710 002e 1846     		mov	r0, r3
 1711 0030 1437     		adds	r7, r7, #20
 1712              	.LCFI49:
 1713              		.cfi_def_cfa_offset 4
 1714 0032 BD46     		mov	sp, r7
 1715              	.LCFI50:
ARM GAS  C:\Users\danie\AppData\Local\Temp\cczXkyFe.s 			page 48


 1716              		.cfi_def_cfa_register 13
 1717              		@ sp needed
 1718 0034 80BC     		pop	{r7}
 1719              	.LCFI51:
 1720              		.cfi_restore 7
 1721              		.cfi_def_cfa_offset 0
 1722 0036 7047     		bx	lr
 1723              	.L107:
 1724              		.align	2
 1725              	.L106:
 1726 0038 00240140 		.word	1073816576
 1727 003c 00280140 		.word	1073817600
 1728              		.cfi_endproc
 1729              	.LFE74:
 1731              		.section	.text.HAL_ADCEx_InjectedConvCpltCallback,"ax",%progbits
 1732              		.align	1
 1733              		.weak	HAL_ADCEx_InjectedConvCpltCallback
 1734              		.syntax unified
 1735              		.thumb
 1736              		.thumb_func
 1737              		.fpu softvfp
 1739              	HAL_ADCEx_InjectedConvCpltCallback:
 1740              	.LFB75:
 961:Drivers/STM32F1xx_HAL_Driver/Src/stm32f1xx_hal_adc_ex.c **** #endif /* defined STM32F103x6 || defined STM32F103xB || defined STM32F105xC || defined STM32F107xC 
 962:Drivers/STM32F1xx_HAL_Driver/Src/stm32f1xx_hal_adc_ex.c **** 
 963:Drivers/STM32F1xx_HAL_Driver/Src/stm32f1xx_hal_adc_ex.c **** /**
 964:Drivers/STM32F1xx_HAL_Driver/Src/stm32f1xx_hal_adc_ex.c ****   * @brief  Injected conversion complete callback in non blocking mode 
 965:Drivers/STM32F1xx_HAL_Driver/Src/stm32f1xx_hal_adc_ex.c ****   * @param  hadc: ADC handle
 966:Drivers/STM32F1xx_HAL_Driver/Src/stm32f1xx_hal_adc_ex.c ****   * @retval None
 967:Drivers/STM32F1xx_HAL_Driver/Src/stm32f1xx_hal_adc_ex.c ****   */
 968:Drivers/STM32F1xx_HAL_Driver/Src/stm32f1xx_hal_adc_ex.c **** __weak void HAL_ADCEx_InjectedConvCpltCallback(ADC_HandleTypeDef* hadc)
 969:Drivers/STM32F1xx_HAL_Driver/Src/stm32f1xx_hal_adc_ex.c **** {
 1741              		.loc 1 969 1
 1742              		.cfi_startproc
 1743              		@ args = 0, pretend = 0, frame = 8
 1744              		@ frame_needed = 1, uses_anonymous_args = 0
 1745              		@ link register save eliminated.
 1746 0000 80B4     		push	{r7}
 1747              	.LCFI52:
 1748              		.cfi_def_cfa_offset 4
 1749              		.cfi_offset 7, -4
 1750 0002 83B0     		sub	sp, sp, #12
 1751              	.LCFI53:
 1752              		.cfi_def_cfa_offset 16
 1753 0004 00AF     		add	r7, sp, #0
 1754              	.LCFI54:
 1755              		.cfi_def_cfa_register 7
 1756 0006 7860     		str	r0, [r7, #4]
 970:Drivers/STM32F1xx_HAL_Driver/Src/stm32f1xx_hal_adc_ex.c ****   /* Prevent unused argument(s) compilation warning */
 971:Drivers/STM32F1xx_HAL_Driver/Src/stm32f1xx_hal_adc_ex.c ****   UNUSED(hadc);
 972:Drivers/STM32F1xx_HAL_Driver/Src/stm32f1xx_hal_adc_ex.c ****   /* NOTE : This function Should not be modified, when the callback is needed,
 973:Drivers/STM32F1xx_HAL_Driver/Src/stm32f1xx_hal_adc_ex.c ****             the HAL_ADCEx_InjectedConvCpltCallback could be implemented in the user file
 974:Drivers/STM32F1xx_HAL_Driver/Src/stm32f1xx_hal_adc_ex.c ****   */
 975:Drivers/STM32F1xx_HAL_Driver/Src/stm32f1xx_hal_adc_ex.c **** }
 1757              		.loc 1 975 1
 1758 0008 00BF     		nop
 1759 000a 0C37     		adds	r7, r7, #12
ARM GAS  C:\Users\danie\AppData\Local\Temp\cczXkyFe.s 			page 49


 1760              	.LCFI55:
 1761              		.cfi_def_cfa_offset 4
 1762 000c BD46     		mov	sp, r7
 1763              	.LCFI56:
 1764              		.cfi_def_cfa_register 13
 1765              		@ sp needed
 1766 000e 80BC     		pop	{r7}
 1767              	.LCFI57:
 1768              		.cfi_restore 7
 1769              		.cfi_def_cfa_offset 0
 1770 0010 7047     		bx	lr
 1771              		.cfi_endproc
 1772              	.LFE75:
 1774              		.section	.text.HAL_ADCEx_InjectedConfigChannel,"ax",%progbits
 1775              		.align	1
 1776              		.global	HAL_ADCEx_InjectedConfigChannel
 1777              		.syntax unified
 1778              		.thumb
 1779              		.thumb_func
 1780              		.fpu softvfp
 1782              	HAL_ADCEx_InjectedConfigChannel:
 1783              	.LFB76:
 976:Drivers/STM32F1xx_HAL_Driver/Src/stm32f1xx_hal_adc_ex.c **** 
 977:Drivers/STM32F1xx_HAL_Driver/Src/stm32f1xx_hal_adc_ex.c **** /**
 978:Drivers/STM32F1xx_HAL_Driver/Src/stm32f1xx_hal_adc_ex.c ****   * @}
 979:Drivers/STM32F1xx_HAL_Driver/Src/stm32f1xx_hal_adc_ex.c ****   */
 980:Drivers/STM32F1xx_HAL_Driver/Src/stm32f1xx_hal_adc_ex.c **** 
 981:Drivers/STM32F1xx_HAL_Driver/Src/stm32f1xx_hal_adc_ex.c **** /** @defgroup ADCEx_Exported_Functions_Group2 Extended Peripheral Control functions
 982:Drivers/STM32F1xx_HAL_Driver/Src/stm32f1xx_hal_adc_ex.c ****   * @brief    Extended Peripheral Control functions
 983:Drivers/STM32F1xx_HAL_Driver/Src/stm32f1xx_hal_adc_ex.c ****   *
 984:Drivers/STM32F1xx_HAL_Driver/Src/stm32f1xx_hal_adc_ex.c **** @verbatim   
 985:Drivers/STM32F1xx_HAL_Driver/Src/stm32f1xx_hal_adc_ex.c ****  ===============================================================================
 986:Drivers/STM32F1xx_HAL_Driver/Src/stm32f1xx_hal_adc_ex.c ****              ##### Peripheral Control functions #####
 987:Drivers/STM32F1xx_HAL_Driver/Src/stm32f1xx_hal_adc_ex.c ****  ===============================================================================  
 988:Drivers/STM32F1xx_HAL_Driver/Src/stm32f1xx_hal_adc_ex.c ****     [..]  This section provides functions allowing to:
 989:Drivers/STM32F1xx_HAL_Driver/Src/stm32f1xx_hal_adc_ex.c ****       (+) Configure channels on injected group
 990:Drivers/STM32F1xx_HAL_Driver/Src/stm32f1xx_hal_adc_ex.c ****       (+) Configure multimode
 991:Drivers/STM32F1xx_HAL_Driver/Src/stm32f1xx_hal_adc_ex.c **** 
 992:Drivers/STM32F1xx_HAL_Driver/Src/stm32f1xx_hal_adc_ex.c **** @endverbatim
 993:Drivers/STM32F1xx_HAL_Driver/Src/stm32f1xx_hal_adc_ex.c ****   * @{
 994:Drivers/STM32F1xx_HAL_Driver/Src/stm32f1xx_hal_adc_ex.c ****   */
 995:Drivers/STM32F1xx_HAL_Driver/Src/stm32f1xx_hal_adc_ex.c **** 
 996:Drivers/STM32F1xx_HAL_Driver/Src/stm32f1xx_hal_adc_ex.c **** /**
 997:Drivers/STM32F1xx_HAL_Driver/Src/stm32f1xx_hal_adc_ex.c ****   * @brief  Configures the ADC injected group and the selected channel to be
 998:Drivers/STM32F1xx_HAL_Driver/Src/stm32f1xx_hal_adc_ex.c ****   *         linked to the injected group.
 999:Drivers/STM32F1xx_HAL_Driver/Src/stm32f1xx_hal_adc_ex.c ****   * @note   Possibility to update parameters on the fly:
1000:Drivers/STM32F1xx_HAL_Driver/Src/stm32f1xx_hal_adc_ex.c ****   *         This function initializes injected group, following calls to this 
1001:Drivers/STM32F1xx_HAL_Driver/Src/stm32f1xx_hal_adc_ex.c ****   *         function can be used to reconfigure some parameters of structure
1002:Drivers/STM32F1xx_HAL_Driver/Src/stm32f1xx_hal_adc_ex.c ****   *         "ADC_InjectionConfTypeDef" on the fly, without reseting the ADC.
1003:Drivers/STM32F1xx_HAL_Driver/Src/stm32f1xx_hal_adc_ex.c ****   *         The setting of these parameters is conditioned to ADC state: 
1004:Drivers/STM32F1xx_HAL_Driver/Src/stm32f1xx_hal_adc_ex.c ****   *         this function must be called when ADC is not under conversion.
1005:Drivers/STM32F1xx_HAL_Driver/Src/stm32f1xx_hal_adc_ex.c ****   * @param  hadc: ADC handle
1006:Drivers/STM32F1xx_HAL_Driver/Src/stm32f1xx_hal_adc_ex.c ****   * @param  sConfigInjected: Structure of ADC injected group and ADC channel for
1007:Drivers/STM32F1xx_HAL_Driver/Src/stm32f1xx_hal_adc_ex.c ****   *         injected group.
1008:Drivers/STM32F1xx_HAL_Driver/Src/stm32f1xx_hal_adc_ex.c ****   * @retval None
1009:Drivers/STM32F1xx_HAL_Driver/Src/stm32f1xx_hal_adc_ex.c ****   */
1010:Drivers/STM32F1xx_HAL_Driver/Src/stm32f1xx_hal_adc_ex.c **** HAL_StatusTypeDef HAL_ADCEx_InjectedConfigChannel(ADC_HandleTypeDef* hadc, ADC_InjectionConfTypeDef
ARM GAS  C:\Users\danie\AppData\Local\Temp\cczXkyFe.s 			page 50


1011:Drivers/STM32F1xx_HAL_Driver/Src/stm32f1xx_hal_adc_ex.c **** {
 1784              		.loc 1 1011 1
 1785              		.cfi_startproc
 1786              		@ args = 0, pretend = 0, frame = 16
 1787              		@ frame_needed = 1, uses_anonymous_args = 0
 1788              		@ link register save eliminated.
 1789 0000 90B4     		push	{r4, r7}
 1790              	.LCFI58:
 1791              		.cfi_def_cfa_offset 8
 1792              		.cfi_offset 4, -8
 1793              		.cfi_offset 7, -4
 1794 0002 84B0     		sub	sp, sp, #16
 1795              	.LCFI59:
 1796              		.cfi_def_cfa_offset 24
 1797 0004 00AF     		add	r7, sp, #0
 1798              	.LCFI60:
 1799              		.cfi_def_cfa_register 7
 1800 0006 7860     		str	r0, [r7, #4]
 1801 0008 3960     		str	r1, [r7]
1012:Drivers/STM32F1xx_HAL_Driver/Src/stm32f1xx_hal_adc_ex.c ****   HAL_StatusTypeDef tmp_hal_status = HAL_OK;
 1802              		.loc 1 1012 21
 1803 000a 0023     		movs	r3, #0
 1804 000c FB73     		strb	r3, [r7, #15]
1013:Drivers/STM32F1xx_HAL_Driver/Src/stm32f1xx_hal_adc_ex.c ****   __IO uint32_t wait_loop_index = 0U;
 1805              		.loc 1 1013 17
 1806 000e 0023     		movs	r3, #0
 1807 0010 BB60     		str	r3, [r7, #8]
1014:Drivers/STM32F1xx_HAL_Driver/Src/stm32f1xx_hal_adc_ex.c ****   
1015:Drivers/STM32F1xx_HAL_Driver/Src/stm32f1xx_hal_adc_ex.c ****   /* Check the parameters */
1016:Drivers/STM32F1xx_HAL_Driver/Src/stm32f1xx_hal_adc_ex.c ****   assert_param(IS_ADC_ALL_INSTANCE(hadc->Instance));
1017:Drivers/STM32F1xx_HAL_Driver/Src/stm32f1xx_hal_adc_ex.c ****   assert_param(IS_ADC_CHANNEL(sConfigInjected->InjectedChannel));
1018:Drivers/STM32F1xx_HAL_Driver/Src/stm32f1xx_hal_adc_ex.c ****   assert_param(IS_ADC_SAMPLE_TIME(sConfigInjected->InjectedSamplingTime));
1019:Drivers/STM32F1xx_HAL_Driver/Src/stm32f1xx_hal_adc_ex.c ****   assert_param(IS_FUNCTIONAL_STATE(sConfigInjected->AutoInjectedConv));
1020:Drivers/STM32F1xx_HAL_Driver/Src/stm32f1xx_hal_adc_ex.c ****   assert_param(IS_ADC_EXTTRIGINJEC(sConfigInjected->ExternalTrigInjecConv));
1021:Drivers/STM32F1xx_HAL_Driver/Src/stm32f1xx_hal_adc_ex.c ****   assert_param(IS_ADC_RANGE(sConfigInjected->InjectedOffset));
1022:Drivers/STM32F1xx_HAL_Driver/Src/stm32f1xx_hal_adc_ex.c ****   
1023:Drivers/STM32F1xx_HAL_Driver/Src/stm32f1xx_hal_adc_ex.c ****   if(hadc->Init.ScanConvMode != ADC_SCAN_DISABLE)
1024:Drivers/STM32F1xx_HAL_Driver/Src/stm32f1xx_hal_adc_ex.c ****   {
1025:Drivers/STM32F1xx_HAL_Driver/Src/stm32f1xx_hal_adc_ex.c ****     assert_param(IS_ADC_INJECTED_RANK(sConfigInjected->InjectedRank));
1026:Drivers/STM32F1xx_HAL_Driver/Src/stm32f1xx_hal_adc_ex.c ****     assert_param(IS_ADC_INJECTED_NB_CONV(sConfigInjected->InjectedNbrOfConversion));
1027:Drivers/STM32F1xx_HAL_Driver/Src/stm32f1xx_hal_adc_ex.c ****     assert_param(IS_FUNCTIONAL_STATE(sConfigInjected->InjectedDiscontinuousConvMode));
1028:Drivers/STM32F1xx_HAL_Driver/Src/stm32f1xx_hal_adc_ex.c ****   }
1029:Drivers/STM32F1xx_HAL_Driver/Src/stm32f1xx_hal_adc_ex.c ****   
1030:Drivers/STM32F1xx_HAL_Driver/Src/stm32f1xx_hal_adc_ex.c ****   /* Process locked */
1031:Drivers/STM32F1xx_HAL_Driver/Src/stm32f1xx_hal_adc_ex.c ****   __HAL_LOCK(hadc);
 1808              		.loc 1 1031 3
 1809 0012 7B68     		ldr	r3, [r7, #4]
 1810 0014 93F82430 		ldrb	r3, [r3, #36]	@ zero_extendqisi2
 1811 0018 012B     		cmp	r3, #1
 1812 001a 01D1     		bne	.L110
 1813              		.loc 1 1031 3 is_stmt 0 discriminator 1
 1814 001c 0223     		movs	r3, #2
 1815 001e 7DE1     		b	.L111
 1816              	.L110:
 1817              		.loc 1 1031 3 discriminator 2
 1818 0020 7B68     		ldr	r3, [r7, #4]
 1819 0022 0122     		movs	r2, #1
ARM GAS  C:\Users\danie\AppData\Local\Temp\cczXkyFe.s 			page 51


 1820 0024 83F82420 		strb	r2, [r3, #36]
1032:Drivers/STM32F1xx_HAL_Driver/Src/stm32f1xx_hal_adc_ex.c ****   
1033:Drivers/STM32F1xx_HAL_Driver/Src/stm32f1xx_hal_adc_ex.c ****   /* Configuration of injected group sequencer:                               */
1034:Drivers/STM32F1xx_HAL_Driver/Src/stm32f1xx_hal_adc_ex.c ****   /* - if scan mode is disabled, injected channels sequence length is set to  */
1035:Drivers/STM32F1xx_HAL_Driver/Src/stm32f1xx_hal_adc_ex.c ****   /*   0x00: 1 channel converted (channel on regular rank 1)                  */
1036:Drivers/STM32F1xx_HAL_Driver/Src/stm32f1xx_hal_adc_ex.c ****   /*   Parameter "InjectedNbrOfConversion" is discarded.                      */
1037:Drivers/STM32F1xx_HAL_Driver/Src/stm32f1xx_hal_adc_ex.c ****   /*   Note: Scan mode is present by hardware on this device and, if          */
1038:Drivers/STM32F1xx_HAL_Driver/Src/stm32f1xx_hal_adc_ex.c ****   /*   disabled, discards automatically nb of conversions. Anyway, nb of      */
1039:Drivers/STM32F1xx_HAL_Driver/Src/stm32f1xx_hal_adc_ex.c ****   /*   conversions is forced to 0x00 for alignment over all STM32 devices.    */
1040:Drivers/STM32F1xx_HAL_Driver/Src/stm32f1xx_hal_adc_ex.c ****   /* - if scan mode is enabled, injected channels sequence length is set to   */
1041:Drivers/STM32F1xx_HAL_Driver/Src/stm32f1xx_hal_adc_ex.c ****   /*   parameter "InjectedNbrOfConversion".                                   */
1042:Drivers/STM32F1xx_HAL_Driver/Src/stm32f1xx_hal_adc_ex.c ****   if (hadc->Init.ScanConvMode == ADC_SCAN_DISABLE)
 1821              		.loc 1 1042 17 is_stmt 1 discriminator 2
 1822 0028 7B68     		ldr	r3, [r7, #4]
 1823 002a 9B68     		ldr	r3, [r3, #8]
 1824              		.loc 1 1042 6 discriminator 2
 1825 002c 002B     		cmp	r3, #0
 1826 002e 19D1     		bne	.L112
1043:Drivers/STM32F1xx_HAL_Driver/Src/stm32f1xx_hal_adc_ex.c ****   {
1044:Drivers/STM32F1xx_HAL_Driver/Src/stm32f1xx_hal_adc_ex.c ****     if (sConfigInjected->InjectedRank == ADC_INJECTED_RANK_1)
 1827              		.loc 1 1044 24
 1828 0030 3B68     		ldr	r3, [r7]
 1829 0032 5B68     		ldr	r3, [r3, #4]
 1830              		.loc 1 1044 8
 1831 0034 012B     		cmp	r3, #1
 1832 0036 0CD1     		bne	.L113
1045:Drivers/STM32F1xx_HAL_Driver/Src/stm32f1xx_hal_adc_ex.c ****     {
1046:Drivers/STM32F1xx_HAL_Driver/Src/stm32f1xx_hal_adc_ex.c ****       /* Clear the old SQx bits for all injected ranks */
1047:Drivers/STM32F1xx_HAL_Driver/Src/stm32f1xx_hal_adc_ex.c ****       MODIFY_REG(hadc->Instance->JSQR                             ,
 1833              		.loc 1 1047 7
 1834 0038 7B68     		ldr	r3, [r7, #4]
 1835 003a 1B68     		ldr	r3, [r3]
 1836 003c 9B6B     		ldr	r3, [r3, #56]
 1837 003e 9B0D     		lsrs	r3, r3, #22
 1838 0040 9B05     		lsls	r3, r3, #22
 1839 0042 3A68     		ldr	r2, [r7]
 1840 0044 1268     		ldr	r2, [r2]
 1841 0046 D103     		lsls	r1, r2, #15
 1842 0048 7A68     		ldr	r2, [r7, #4]
 1843 004a 1268     		ldr	r2, [r2]
 1844 004c 0B43     		orrs	r3, r3, r1
 1845 004e 9363     		str	r3, [r2, #56]
 1846 0050 4FE0     		b	.L114
 1847              	.L113:
1048:Drivers/STM32F1xx_HAL_Driver/Src/stm32f1xx_hal_adc_ex.c ****                  ADC_JSQR_JL   |
1049:Drivers/STM32F1xx_HAL_Driver/Src/stm32f1xx_hal_adc_ex.c ****                  ADC_JSQR_JSQ4 |
1050:Drivers/STM32F1xx_HAL_Driver/Src/stm32f1xx_hal_adc_ex.c ****                  ADC_JSQR_JSQ3 |
1051:Drivers/STM32F1xx_HAL_Driver/Src/stm32f1xx_hal_adc_ex.c ****                  ADC_JSQR_JSQ2 |
1052:Drivers/STM32F1xx_HAL_Driver/Src/stm32f1xx_hal_adc_ex.c ****                  ADC_JSQR_JSQ1                                    ,
1053:Drivers/STM32F1xx_HAL_Driver/Src/stm32f1xx_hal_adc_ex.c ****                  ADC_JSQR_RK_JL(sConfigInjected->InjectedChannel,
1054:Drivers/STM32F1xx_HAL_Driver/Src/stm32f1xx_hal_adc_ex.c ****                                   ADC_INJECTED_RANK_1,
1055:Drivers/STM32F1xx_HAL_Driver/Src/stm32f1xx_hal_adc_ex.c ****                                   0x01U));
1056:Drivers/STM32F1xx_HAL_Driver/Src/stm32f1xx_hal_adc_ex.c ****     }
1057:Drivers/STM32F1xx_HAL_Driver/Src/stm32f1xx_hal_adc_ex.c ****     /* If another injected rank than rank1 was intended to be set, and could  */
1058:Drivers/STM32F1xx_HAL_Driver/Src/stm32f1xx_hal_adc_ex.c ****     /* not due to ScanConvMode disabled, error is reported.                   */
1059:Drivers/STM32F1xx_HAL_Driver/Src/stm32f1xx_hal_adc_ex.c ****     else
1060:Drivers/STM32F1xx_HAL_Driver/Src/stm32f1xx_hal_adc_ex.c ****     {
ARM GAS  C:\Users\danie\AppData\Local\Temp\cczXkyFe.s 			page 52


1061:Drivers/STM32F1xx_HAL_Driver/Src/stm32f1xx_hal_adc_ex.c ****       /* Update ADC state machine to error */
1062:Drivers/STM32F1xx_HAL_Driver/Src/stm32f1xx_hal_adc_ex.c ****       SET_BIT(hadc->State, HAL_ADC_STATE_ERROR_CONFIG);
 1848              		.loc 1 1062 7
 1849 0052 7B68     		ldr	r3, [r7, #4]
 1850 0054 9B6A     		ldr	r3, [r3, #40]
 1851 0056 43F02002 		orr	r2, r3, #32
 1852 005a 7B68     		ldr	r3, [r7, #4]
 1853 005c 9A62     		str	r2, [r3, #40]
1063:Drivers/STM32F1xx_HAL_Driver/Src/stm32f1xx_hal_adc_ex.c ****       
1064:Drivers/STM32F1xx_HAL_Driver/Src/stm32f1xx_hal_adc_ex.c ****       tmp_hal_status = HAL_ERROR;
 1854              		.loc 1 1064 22
 1855 005e 0123     		movs	r3, #1
 1856 0060 FB73     		strb	r3, [r7, #15]
 1857 0062 46E0     		b	.L114
 1858              	.L112:
1065:Drivers/STM32F1xx_HAL_Driver/Src/stm32f1xx_hal_adc_ex.c ****     }
1066:Drivers/STM32F1xx_HAL_Driver/Src/stm32f1xx_hal_adc_ex.c ****   }
1067:Drivers/STM32F1xx_HAL_Driver/Src/stm32f1xx_hal_adc_ex.c ****   else
1068:Drivers/STM32F1xx_HAL_Driver/Src/stm32f1xx_hal_adc_ex.c ****   {
1069:Drivers/STM32F1xx_HAL_Driver/Src/stm32f1xx_hal_adc_ex.c ****     /* Since injected channels rank conv. order depends on total number of   */
1070:Drivers/STM32F1xx_HAL_Driver/Src/stm32f1xx_hal_adc_ex.c ****     /* injected conversions, selected rank must be below or equal to total   */
1071:Drivers/STM32F1xx_HAL_Driver/Src/stm32f1xx_hal_adc_ex.c ****     /* number of injected conversions to be updated.                         */
1072:Drivers/STM32F1xx_HAL_Driver/Src/stm32f1xx_hal_adc_ex.c ****     if (sConfigInjected->InjectedRank <= sConfigInjected->InjectedNbrOfConversion)
 1859              		.loc 1 1072 24
 1860 0064 3B68     		ldr	r3, [r7]
 1861 0066 5A68     		ldr	r2, [r3, #4]
 1862              		.loc 1 1072 57
 1863 0068 3B68     		ldr	r3, [r7]
 1864 006a 1B69     		ldr	r3, [r3, #16]
 1865              		.loc 1 1072 8
 1866 006c 9A42     		cmp	r2, r3
 1867 006e 2AD8     		bhi	.L115
1073:Drivers/STM32F1xx_HAL_Driver/Src/stm32f1xx_hal_adc_ex.c ****     {
1074:Drivers/STM32F1xx_HAL_Driver/Src/stm32f1xx_hal_adc_ex.c ****       /* Clear the old SQx bits for the selected rank */
1075:Drivers/STM32F1xx_HAL_Driver/Src/stm32f1xx_hal_adc_ex.c ****       /* Set the SQx bits for the selected rank */
1076:Drivers/STM32F1xx_HAL_Driver/Src/stm32f1xx_hal_adc_ex.c ****       MODIFY_REG(hadc->Instance->JSQR                                         ,
 1868              		.loc 1 1076 7
 1869 0070 7B68     		ldr	r3, [r7, #4]
 1870 0072 1B68     		ldr	r3, [r3]
 1871 0074 996B     		ldr	r1, [r3, #56]
 1872 0076 3B68     		ldr	r3, [r7]
 1873 0078 5A68     		ldr	r2, [r3, #4]
 1874 007a 3B68     		ldr	r3, [r7]
 1875 007c 1B69     		ldr	r3, [r3, #16]
 1876 007e D21A     		subs	r2, r2, r3
 1877 0080 1346     		mov	r3, r2
 1878 0082 9B00     		lsls	r3, r3, #2
 1879 0084 1344     		add	r3, r3, r2
 1880 0086 0F33     		adds	r3, r3, #15
 1881 0088 1F22     		movs	r2, #31
 1882 008a 02FA03F3 		lsl	r3, r2, r3
 1883 008e 43F44013 		orr	r3, r3, #3145728
 1884 0092 DB43     		mvns	r3, r3
 1885 0094 1940     		ands	r1, r1, r3
 1886 0096 3B68     		ldr	r3, [r7]
 1887 0098 1B69     		ldr	r3, [r3, #16]
 1888 009a 013B     		subs	r3, r3, #1
ARM GAS  C:\Users\danie\AppData\Local\Temp\cczXkyFe.s 			page 53


 1889 009c 1805     		lsls	r0, r3, #20
 1890 009e 3B68     		ldr	r3, [r7]
 1891 00a0 1C68     		ldr	r4, [r3]
 1892 00a2 3B68     		ldr	r3, [r7]
 1893 00a4 5A68     		ldr	r2, [r3, #4]
 1894 00a6 3B68     		ldr	r3, [r7]
 1895 00a8 1B69     		ldr	r3, [r3, #16]
 1896 00aa D21A     		subs	r2, r2, r3
 1897 00ac 1346     		mov	r3, r2
 1898 00ae 9B00     		lsls	r3, r3, #2
 1899 00b0 1344     		add	r3, r3, r2
 1900 00b2 0F33     		adds	r3, r3, #15
 1901 00b4 04FA03F3 		lsl	r3, r4, r3
 1902 00b8 40EA0302 		orr	r2, r0, r3
 1903 00bc 7B68     		ldr	r3, [r7, #4]
 1904 00be 1B68     		ldr	r3, [r3]
 1905 00c0 0A43     		orrs	r2, r2, r1
 1906 00c2 9A63     		str	r2, [r3, #56]
 1907 00c4 15E0     		b	.L114
 1908              	.L115:
1077:Drivers/STM32F1xx_HAL_Driver/Src/stm32f1xx_hal_adc_ex.c ****                  
1078:Drivers/STM32F1xx_HAL_Driver/Src/stm32f1xx_hal_adc_ex.c ****                  ADC_JSQR_JL                                               |
1079:Drivers/STM32F1xx_HAL_Driver/Src/stm32f1xx_hal_adc_ex.c ****                  ADC_JSQR_RK_JL(ADC_JSQR_JSQ1,                         
1080:Drivers/STM32F1xx_HAL_Driver/Src/stm32f1xx_hal_adc_ex.c ****                                   sConfigInjected->InjectedRank,         
1081:Drivers/STM32F1xx_HAL_Driver/Src/stm32f1xx_hal_adc_ex.c ****                                   sConfigInjected->InjectedNbrOfConversion)   ,
1082:Drivers/STM32F1xx_HAL_Driver/Src/stm32f1xx_hal_adc_ex.c ****                  
1083:Drivers/STM32F1xx_HAL_Driver/Src/stm32f1xx_hal_adc_ex.c ****                  ADC_JSQR_JL_SHIFT(sConfigInjected->InjectedNbrOfConversion) |
1084:Drivers/STM32F1xx_HAL_Driver/Src/stm32f1xx_hal_adc_ex.c ****                  ADC_JSQR_RK_JL(sConfigInjected->InjectedChannel,      
1085:Drivers/STM32F1xx_HAL_Driver/Src/stm32f1xx_hal_adc_ex.c ****                                   sConfigInjected->InjectedRank,         
1086:Drivers/STM32F1xx_HAL_Driver/Src/stm32f1xx_hal_adc_ex.c ****                                   sConfigInjected->InjectedNbrOfConversion)    );
1087:Drivers/STM32F1xx_HAL_Driver/Src/stm32f1xx_hal_adc_ex.c ****     }
1088:Drivers/STM32F1xx_HAL_Driver/Src/stm32f1xx_hal_adc_ex.c ****     else
1089:Drivers/STM32F1xx_HAL_Driver/Src/stm32f1xx_hal_adc_ex.c ****     {
1090:Drivers/STM32F1xx_HAL_Driver/Src/stm32f1xx_hal_adc_ex.c ****       /* Clear the old SQx bits for the selected rank */
1091:Drivers/STM32F1xx_HAL_Driver/Src/stm32f1xx_hal_adc_ex.c ****       MODIFY_REG(hadc->Instance->JSQR                                       ,
 1909              		.loc 1 1091 7
 1910 00c6 7B68     		ldr	r3, [r7, #4]
 1911 00c8 1B68     		ldr	r3, [r3]
 1912 00ca 996B     		ldr	r1, [r3, #56]
 1913 00cc 3B68     		ldr	r3, [r7]
 1914 00ce 5A68     		ldr	r2, [r3, #4]
 1915 00d0 3B68     		ldr	r3, [r7]
 1916 00d2 1B69     		ldr	r3, [r3, #16]
 1917 00d4 D21A     		subs	r2, r2, r3
 1918 00d6 1346     		mov	r3, r2
 1919 00d8 9B00     		lsls	r3, r3, #2
 1920 00da 1344     		add	r3, r3, r2
 1921 00dc 0F33     		adds	r3, r3, #15
 1922 00de 1F22     		movs	r2, #31
 1923 00e0 02FA03F3 		lsl	r3, r2, r3
 1924 00e4 43F44013 		orr	r3, r3, #3145728
 1925 00e8 DA43     		mvns	r2, r3
 1926 00ea 7B68     		ldr	r3, [r7, #4]
 1927 00ec 1B68     		ldr	r3, [r3]
 1928 00ee 0A40     		ands	r2, r2, r1
 1929 00f0 9A63     		str	r2, [r3, #56]
 1930              	.L114:
ARM GAS  C:\Users\danie\AppData\Local\Temp\cczXkyFe.s 			page 54


1092:Drivers/STM32F1xx_HAL_Driver/Src/stm32f1xx_hal_adc_ex.c ****                  
1093:Drivers/STM32F1xx_HAL_Driver/Src/stm32f1xx_hal_adc_ex.c ****                  ADC_JSQR_JL                                               |
1094:Drivers/STM32F1xx_HAL_Driver/Src/stm32f1xx_hal_adc_ex.c ****                  ADC_JSQR_RK_JL(ADC_JSQR_JSQ1,                         
1095:Drivers/STM32F1xx_HAL_Driver/Src/stm32f1xx_hal_adc_ex.c ****                                   sConfigInjected->InjectedRank,         
1096:Drivers/STM32F1xx_HAL_Driver/Src/stm32f1xx_hal_adc_ex.c ****                                   sConfigInjected->InjectedNbrOfConversion) ,
1097:Drivers/STM32F1xx_HAL_Driver/Src/stm32f1xx_hal_adc_ex.c ****                  
1098:Drivers/STM32F1xx_HAL_Driver/Src/stm32f1xx_hal_adc_ex.c ****                  0x00000000U);
1099:Drivers/STM32F1xx_HAL_Driver/Src/stm32f1xx_hal_adc_ex.c ****     }
1100:Drivers/STM32F1xx_HAL_Driver/Src/stm32f1xx_hal_adc_ex.c ****   } 
1101:Drivers/STM32F1xx_HAL_Driver/Src/stm32f1xx_hal_adc_ex.c ****     
1102:Drivers/STM32F1xx_HAL_Driver/Src/stm32f1xx_hal_adc_ex.c ****   /* Configuration of injected group                                          */
1103:Drivers/STM32F1xx_HAL_Driver/Src/stm32f1xx_hal_adc_ex.c ****   /* Parameters update conditioned to ADC state:                              */
1104:Drivers/STM32F1xx_HAL_Driver/Src/stm32f1xx_hal_adc_ex.c ****   /* Parameters that can be updated only when ADC is disabled:                */
1105:Drivers/STM32F1xx_HAL_Driver/Src/stm32f1xx_hal_adc_ex.c ****   /*  - external trigger to start conversion                                  */
1106:Drivers/STM32F1xx_HAL_Driver/Src/stm32f1xx_hal_adc_ex.c ****   /* Parameters update not conditioned to ADC state:                          */
1107:Drivers/STM32F1xx_HAL_Driver/Src/stm32f1xx_hal_adc_ex.c ****   /*  - Automatic injected conversion                                         */
1108:Drivers/STM32F1xx_HAL_Driver/Src/stm32f1xx_hal_adc_ex.c ****   /*  - Injected discontinuous mode                                           */
1109:Drivers/STM32F1xx_HAL_Driver/Src/stm32f1xx_hal_adc_ex.c ****   /* Note: In case of ADC already enabled, caution to not launch an unwanted  */
1110:Drivers/STM32F1xx_HAL_Driver/Src/stm32f1xx_hal_adc_ex.c ****   /*       conversion while modifying register CR2 by writing 1 to bit ADON.  */
1111:Drivers/STM32F1xx_HAL_Driver/Src/stm32f1xx_hal_adc_ex.c ****   if (ADC_IS_ENABLE(hadc) == RESET)
 1931              		.loc 1 1111 7
 1932 00f2 7B68     		ldr	r3, [r7, #4]
 1933 00f4 1B68     		ldr	r3, [r3]
 1934 00f6 9B68     		ldr	r3, [r3, #8]
 1935 00f8 03F00103 		and	r3, r3, #1
 1936              		.loc 1 1111 6
 1937 00fc 012B     		cmp	r3, #1
 1938 00fe 0CD0     		beq	.L116
1112:Drivers/STM32F1xx_HAL_Driver/Src/stm32f1xx_hal_adc_ex.c ****   {    
1113:Drivers/STM32F1xx_HAL_Driver/Src/stm32f1xx_hal_adc_ex.c ****     MODIFY_REG(hadc->Instance->CR2                                           ,
 1939              		.loc 1 1113 5
 1940 0100 7B68     		ldr	r3, [r7, #4]
 1941 0102 1B68     		ldr	r3, [r3]
 1942 0104 9B68     		ldr	r3, [r3, #8]
 1943 0106 23F4E043 		bic	r3, r3, #28672
 1944 010a 23F00103 		bic	r3, r3, #1
 1945 010e 3A68     		ldr	r2, [r7]
 1946 0110 9169     		ldr	r1, [r2, #24]
 1947 0112 7A68     		ldr	r2, [r7, #4]
 1948 0114 1268     		ldr	r2, [r2]
 1949 0116 0B43     		orrs	r3, r3, r1
 1950 0118 9360     		str	r3, [r2, #8]
 1951              	.L116:
1114:Drivers/STM32F1xx_HAL_Driver/Src/stm32f1xx_hal_adc_ex.c ****                ADC_CR2_JEXTSEL |
1115:Drivers/STM32F1xx_HAL_Driver/Src/stm32f1xx_hal_adc_ex.c ****                ADC_CR2_ADON                                                  ,
1116:Drivers/STM32F1xx_HAL_Driver/Src/stm32f1xx_hal_adc_ex.c ****                ADC_CFGR_JEXTSEL(hadc, sConfigInjected->ExternalTrigInjecConv) );
1117:Drivers/STM32F1xx_HAL_Driver/Src/stm32f1xx_hal_adc_ex.c ****   }
1118:Drivers/STM32F1xx_HAL_Driver/Src/stm32f1xx_hal_adc_ex.c ****   
1119:Drivers/STM32F1xx_HAL_Driver/Src/stm32f1xx_hal_adc_ex.c ****   
1120:Drivers/STM32F1xx_HAL_Driver/Src/stm32f1xx_hal_adc_ex.c ****   /* Configuration of injected group                                          */
1121:Drivers/STM32F1xx_HAL_Driver/Src/stm32f1xx_hal_adc_ex.c ****   /*  - Automatic injected conversion                                         */
1122:Drivers/STM32F1xx_HAL_Driver/Src/stm32f1xx_hal_adc_ex.c ****   /*  - Injected discontinuous mode                                           */
1123:Drivers/STM32F1xx_HAL_Driver/Src/stm32f1xx_hal_adc_ex.c ****   
1124:Drivers/STM32F1xx_HAL_Driver/Src/stm32f1xx_hal_adc_ex.c ****     /* Automatic injected conversion can be enabled if injected group         */
1125:Drivers/STM32F1xx_HAL_Driver/Src/stm32f1xx_hal_adc_ex.c ****     /* external triggers are disabled.                                        */
1126:Drivers/STM32F1xx_HAL_Driver/Src/stm32f1xx_hal_adc_ex.c ****     if (sConfigInjected->AutoInjectedConv == ENABLE)
 1952              		.loc 1 1126 24
ARM GAS  C:\Users\danie\AppData\Local\Temp\cczXkyFe.s 			page 55


 1953 011a 3B68     		ldr	r3, [r7]
 1954 011c 5B7D     		ldrb	r3, [r3, #21]	@ zero_extendqisi2
 1955              		.loc 1 1126 8
 1956 011e 012B     		cmp	r3, #1
 1957 0120 15D1     		bne	.L117
1127:Drivers/STM32F1xx_HAL_Driver/Src/stm32f1xx_hal_adc_ex.c ****     {
1128:Drivers/STM32F1xx_HAL_Driver/Src/stm32f1xx_hal_adc_ex.c ****       if (sConfigInjected->ExternalTrigInjecConv == ADC_INJECTED_SOFTWARE_START)
 1958              		.loc 1 1128 26
 1959 0122 3B68     		ldr	r3, [r7]
 1960 0124 9B69     		ldr	r3, [r3, #24]
 1961              		.loc 1 1128 10
 1962 0126 B3F5E04F 		cmp	r3, #28672
 1963 012a 08D1     		bne	.L118
1129:Drivers/STM32F1xx_HAL_Driver/Src/stm32f1xx_hal_adc_ex.c ****       {
1130:Drivers/STM32F1xx_HAL_Driver/Src/stm32f1xx_hal_adc_ex.c ****         SET_BIT(hadc->Instance->CR1, ADC_CR1_JAUTO);
 1964              		.loc 1 1130 9
 1965 012c 7B68     		ldr	r3, [r7, #4]
 1966 012e 1B68     		ldr	r3, [r3]
 1967 0130 5A68     		ldr	r2, [r3, #4]
 1968 0132 7B68     		ldr	r3, [r7, #4]
 1969 0134 1B68     		ldr	r3, [r3]
 1970 0136 42F48062 		orr	r2, r2, #1024
 1971 013a 5A60     		str	r2, [r3, #4]
 1972 013c 07E0     		b	.L117
 1973              	.L118:
1131:Drivers/STM32F1xx_HAL_Driver/Src/stm32f1xx_hal_adc_ex.c ****       }
1132:Drivers/STM32F1xx_HAL_Driver/Src/stm32f1xx_hal_adc_ex.c ****       else
1133:Drivers/STM32F1xx_HAL_Driver/Src/stm32f1xx_hal_adc_ex.c ****       {
1134:Drivers/STM32F1xx_HAL_Driver/Src/stm32f1xx_hal_adc_ex.c ****         /* Update ADC state machine to error */
1135:Drivers/STM32F1xx_HAL_Driver/Src/stm32f1xx_hal_adc_ex.c ****         SET_BIT(hadc->State, HAL_ADC_STATE_ERROR_CONFIG);
 1974              		.loc 1 1135 9
 1975 013e 7B68     		ldr	r3, [r7, #4]
 1976 0140 9B6A     		ldr	r3, [r3, #40]
 1977 0142 43F02002 		orr	r2, r3, #32
 1978 0146 7B68     		ldr	r3, [r7, #4]
 1979 0148 9A62     		str	r2, [r3, #40]
1136:Drivers/STM32F1xx_HAL_Driver/Src/stm32f1xx_hal_adc_ex.c ****         
1137:Drivers/STM32F1xx_HAL_Driver/Src/stm32f1xx_hal_adc_ex.c ****         tmp_hal_status = HAL_ERROR;
 1980              		.loc 1 1137 24
 1981 014a 0123     		movs	r3, #1
 1982 014c FB73     		strb	r3, [r7, #15]
 1983              	.L117:
1138:Drivers/STM32F1xx_HAL_Driver/Src/stm32f1xx_hal_adc_ex.c ****       }
1139:Drivers/STM32F1xx_HAL_Driver/Src/stm32f1xx_hal_adc_ex.c ****     }
1140:Drivers/STM32F1xx_HAL_Driver/Src/stm32f1xx_hal_adc_ex.c ****     
1141:Drivers/STM32F1xx_HAL_Driver/Src/stm32f1xx_hal_adc_ex.c ****     /* Injected discontinuous can be enabled only if auto-injected mode is    */
1142:Drivers/STM32F1xx_HAL_Driver/Src/stm32f1xx_hal_adc_ex.c ****     /* disabled.                                                              */  
1143:Drivers/STM32F1xx_HAL_Driver/Src/stm32f1xx_hal_adc_ex.c ****     if (sConfigInjected->InjectedDiscontinuousConvMode == ENABLE)
 1984              		.loc 1 1143 24
 1985 014e 3B68     		ldr	r3, [r7]
 1986 0150 1B7D     		ldrb	r3, [r3, #20]	@ zero_extendqisi2
 1987              		.loc 1 1143 8
 1988 0152 012B     		cmp	r3, #1
 1989 0154 14D1     		bne	.L119
1144:Drivers/STM32F1xx_HAL_Driver/Src/stm32f1xx_hal_adc_ex.c ****     {
1145:Drivers/STM32F1xx_HAL_Driver/Src/stm32f1xx_hal_adc_ex.c ****       if (sConfigInjected->AutoInjectedConv == DISABLE)
 1990              		.loc 1 1145 26
ARM GAS  C:\Users\danie\AppData\Local\Temp\cczXkyFe.s 			page 56


 1991 0156 3B68     		ldr	r3, [r7]
 1992 0158 5B7D     		ldrb	r3, [r3, #21]	@ zero_extendqisi2
 1993              		.loc 1 1145 10
 1994 015a 002B     		cmp	r3, #0
 1995 015c 08D1     		bne	.L120
1146:Drivers/STM32F1xx_HAL_Driver/Src/stm32f1xx_hal_adc_ex.c ****       {
1147:Drivers/STM32F1xx_HAL_Driver/Src/stm32f1xx_hal_adc_ex.c ****         SET_BIT(hadc->Instance->CR1, ADC_CR1_JDISCEN);
 1996              		.loc 1 1147 9
 1997 015e 7B68     		ldr	r3, [r7, #4]
 1998 0160 1B68     		ldr	r3, [r3]
 1999 0162 5A68     		ldr	r2, [r3, #4]
 2000 0164 7B68     		ldr	r3, [r7, #4]
 2001 0166 1B68     		ldr	r3, [r3]
 2002 0168 42F48052 		orr	r2, r2, #4096
 2003 016c 5A60     		str	r2, [r3, #4]
 2004 016e 07E0     		b	.L119
 2005              	.L120:
1148:Drivers/STM32F1xx_HAL_Driver/Src/stm32f1xx_hal_adc_ex.c ****       } 
1149:Drivers/STM32F1xx_HAL_Driver/Src/stm32f1xx_hal_adc_ex.c ****       else
1150:Drivers/STM32F1xx_HAL_Driver/Src/stm32f1xx_hal_adc_ex.c ****       {
1151:Drivers/STM32F1xx_HAL_Driver/Src/stm32f1xx_hal_adc_ex.c ****         /* Update ADC state machine to error */
1152:Drivers/STM32F1xx_HAL_Driver/Src/stm32f1xx_hal_adc_ex.c ****         SET_BIT(hadc->State, HAL_ADC_STATE_ERROR_CONFIG);
 2006              		.loc 1 1152 9
 2007 0170 7B68     		ldr	r3, [r7, #4]
 2008 0172 9B6A     		ldr	r3, [r3, #40]
 2009 0174 43F02002 		orr	r2, r3, #32
 2010 0178 7B68     		ldr	r3, [r7, #4]
 2011 017a 9A62     		str	r2, [r3, #40]
1153:Drivers/STM32F1xx_HAL_Driver/Src/stm32f1xx_hal_adc_ex.c ****         
1154:Drivers/STM32F1xx_HAL_Driver/Src/stm32f1xx_hal_adc_ex.c ****         tmp_hal_status = HAL_ERROR;
 2012              		.loc 1 1154 24
 2013 017c 0123     		movs	r3, #1
 2014 017e FB73     		strb	r3, [r7, #15]
 2015              	.L119:
1155:Drivers/STM32F1xx_HAL_Driver/Src/stm32f1xx_hal_adc_ex.c ****       }
1156:Drivers/STM32F1xx_HAL_Driver/Src/stm32f1xx_hal_adc_ex.c ****     }
1157:Drivers/STM32F1xx_HAL_Driver/Src/stm32f1xx_hal_adc_ex.c **** 
1158:Drivers/STM32F1xx_HAL_Driver/Src/stm32f1xx_hal_adc_ex.c **** 
1159:Drivers/STM32F1xx_HAL_Driver/Src/stm32f1xx_hal_adc_ex.c ****   /* InjectedChannel sampling time configuration */
1160:Drivers/STM32F1xx_HAL_Driver/Src/stm32f1xx_hal_adc_ex.c ****   /* For channels 10 to 17 */
1161:Drivers/STM32F1xx_HAL_Driver/Src/stm32f1xx_hal_adc_ex.c ****   if (sConfigInjected->InjectedChannel >= ADC_CHANNEL_10)
 2016              		.loc 1 1161 22
 2017 0180 3B68     		ldr	r3, [r7]
 2018 0182 1B68     		ldr	r3, [r3]
 2019              		.loc 1 1161 6
 2020 0184 092B     		cmp	r3, #9
 2021 0186 1CD9     		bls	.L121
1162:Drivers/STM32F1xx_HAL_Driver/Src/stm32f1xx_hal_adc_ex.c ****   {
1163:Drivers/STM32F1xx_HAL_Driver/Src/stm32f1xx_hal_adc_ex.c ****     MODIFY_REG(hadc->Instance->SMPR1                                                             ,
 2022              		.loc 1 1163 5
 2023 0188 7B68     		ldr	r3, [r7, #4]
 2024 018a 1B68     		ldr	r3, [r3]
 2025 018c D968     		ldr	r1, [r3, #12]
 2026 018e 3B68     		ldr	r3, [r7]
 2027 0190 1A68     		ldr	r2, [r3]
 2028 0192 1346     		mov	r3, r2
 2029 0194 5B00     		lsls	r3, r3, #1
ARM GAS  C:\Users\danie\AppData\Local\Temp\cczXkyFe.s 			page 57


 2030 0196 1344     		add	r3, r3, r2
 2031 0198 1E3B     		subs	r3, r3, #30
 2032 019a 0722     		movs	r2, #7
 2033 019c 02FA03F3 		lsl	r3, r2, r3
 2034 01a0 DB43     		mvns	r3, r3
 2035 01a2 1940     		ands	r1, r1, r3
 2036 01a4 3B68     		ldr	r3, [r7]
 2037 01a6 9868     		ldr	r0, [r3, #8]
 2038 01a8 3B68     		ldr	r3, [r7]
 2039 01aa 1A68     		ldr	r2, [r3]
 2040 01ac 1346     		mov	r3, r2
 2041 01ae 5B00     		lsls	r3, r3, #1
 2042 01b0 1344     		add	r3, r3, r2
 2043 01b2 1E3B     		subs	r3, r3, #30
 2044 01b4 00FA03F2 		lsl	r2, r0, r3
 2045 01b8 7B68     		ldr	r3, [r7, #4]
 2046 01ba 1B68     		ldr	r3, [r3]
 2047 01bc 0A43     		orrs	r2, r2, r1
 2048 01be DA60     		str	r2, [r3, #12]
 2049 01c0 19E0     		b	.L122
 2050              	.L121:
1164:Drivers/STM32F1xx_HAL_Driver/Src/stm32f1xx_hal_adc_ex.c ****                ADC_SMPR1(ADC_SMPR1_SMP10, sConfigInjected->InjectedChannel)                      ,
1165:Drivers/STM32F1xx_HAL_Driver/Src/stm32f1xx_hal_adc_ex.c ****                ADC_SMPR1(sConfigInjected->InjectedSamplingTime, sConfigInjected->InjectedChannel) )
1166:Drivers/STM32F1xx_HAL_Driver/Src/stm32f1xx_hal_adc_ex.c ****   }
1167:Drivers/STM32F1xx_HAL_Driver/Src/stm32f1xx_hal_adc_ex.c ****   else /* For channels 0 to 9 */
1168:Drivers/STM32F1xx_HAL_Driver/Src/stm32f1xx_hal_adc_ex.c ****   {
1169:Drivers/STM32F1xx_HAL_Driver/Src/stm32f1xx_hal_adc_ex.c ****     MODIFY_REG(hadc->Instance->SMPR2                                                             ,
 2051              		.loc 1 1169 5
 2052 01c2 7B68     		ldr	r3, [r7, #4]
 2053 01c4 1B68     		ldr	r3, [r3]
 2054 01c6 1969     		ldr	r1, [r3, #16]
 2055 01c8 3B68     		ldr	r3, [r7]
 2056 01ca 1A68     		ldr	r2, [r3]
 2057 01cc 1346     		mov	r3, r2
 2058 01ce 5B00     		lsls	r3, r3, #1
 2059 01d0 1344     		add	r3, r3, r2
 2060 01d2 0722     		movs	r2, #7
 2061 01d4 02FA03F3 		lsl	r3, r2, r3
 2062 01d8 DB43     		mvns	r3, r3
 2063 01da 1940     		ands	r1, r1, r3
 2064 01dc 3B68     		ldr	r3, [r7]
 2065 01de 9868     		ldr	r0, [r3, #8]
 2066 01e0 3B68     		ldr	r3, [r7]
 2067 01e2 1A68     		ldr	r2, [r3]
 2068 01e4 1346     		mov	r3, r2
 2069 01e6 5B00     		lsls	r3, r3, #1
 2070 01e8 1344     		add	r3, r3, r2
 2071 01ea 00FA03F2 		lsl	r2, r0, r3
 2072 01ee 7B68     		ldr	r3, [r7, #4]
 2073 01f0 1B68     		ldr	r3, [r3]
 2074 01f2 0A43     		orrs	r2, r2, r1
 2075 01f4 1A61     		str	r2, [r3, #16]
 2076              	.L122:
1170:Drivers/STM32F1xx_HAL_Driver/Src/stm32f1xx_hal_adc_ex.c ****                ADC_SMPR2(ADC_SMPR2_SMP0, sConfigInjected->InjectedChannel)                       ,
1171:Drivers/STM32F1xx_HAL_Driver/Src/stm32f1xx_hal_adc_ex.c ****                ADC_SMPR2(sConfigInjected->InjectedSamplingTime, sConfigInjected->InjectedChannel) )
1172:Drivers/STM32F1xx_HAL_Driver/Src/stm32f1xx_hal_adc_ex.c ****   }
1173:Drivers/STM32F1xx_HAL_Driver/Src/stm32f1xx_hal_adc_ex.c ****   
ARM GAS  C:\Users\danie\AppData\Local\Temp\cczXkyFe.s 			page 58


1174:Drivers/STM32F1xx_HAL_Driver/Src/stm32f1xx_hal_adc_ex.c ****   /* If ADC1 InjectedChannel_16 or InjectedChannel_17 is selected, enable Temperature sensor  */
1175:Drivers/STM32F1xx_HAL_Driver/Src/stm32f1xx_hal_adc_ex.c ****   /* and VREFINT measurement path.                                            */
1176:Drivers/STM32F1xx_HAL_Driver/Src/stm32f1xx_hal_adc_ex.c ****   if ((sConfigInjected->InjectedChannel == ADC_CHANNEL_TEMPSENSOR) ||
 2077              		.loc 1 1176 23
 2078 01f6 3B68     		ldr	r3, [r7]
 2079 01f8 1B68     		ldr	r3, [r3]
 2080              		.loc 1 1176 6
 2081 01fa 102B     		cmp	r3, #16
 2082 01fc 03D0     		beq	.L123
1177:Drivers/STM32F1xx_HAL_Driver/Src/stm32f1xx_hal_adc_ex.c ****       (sConfigInjected->InjectedChannel == ADC_CHANNEL_VREFINT)      )
 2083              		.loc 1 1177 23 discriminator 1
 2084 01fe 3B68     		ldr	r3, [r7]
 2085 0200 1B68     		ldr	r3, [r3]
1176:Drivers/STM32F1xx_HAL_Driver/Src/stm32f1xx_hal_adc_ex.c ****       (sConfigInjected->InjectedChannel == ADC_CHANNEL_VREFINT)      )
 2086              		.loc 1 1176 68 discriminator 1
 2087 0202 112B     		cmp	r3, #17
 2088 0204 07D1     		bne	.L124
 2089              	.L123:
1178:Drivers/STM32F1xx_HAL_Driver/Src/stm32f1xx_hal_adc_ex.c ****   {
1179:Drivers/STM32F1xx_HAL_Driver/Src/stm32f1xx_hal_adc_ex.c ****     SET_BIT(hadc->Instance->CR2, ADC_CR2_TSVREFE);
 2090              		.loc 1 1179 5
 2091 0206 7B68     		ldr	r3, [r7, #4]
 2092 0208 1B68     		ldr	r3, [r3]
 2093 020a 9A68     		ldr	r2, [r3, #8]
 2094 020c 7B68     		ldr	r3, [r7, #4]
 2095 020e 1B68     		ldr	r3, [r3]
 2096 0210 42F40002 		orr	r2, r2, #8388608
 2097 0214 9A60     		str	r2, [r3, #8]
 2098              	.L124:
1180:Drivers/STM32F1xx_HAL_Driver/Src/stm32f1xx_hal_adc_ex.c ****   }
1181:Drivers/STM32F1xx_HAL_Driver/Src/stm32f1xx_hal_adc_ex.c ****   
1182:Drivers/STM32F1xx_HAL_Driver/Src/stm32f1xx_hal_adc_ex.c ****   
1183:Drivers/STM32F1xx_HAL_Driver/Src/stm32f1xx_hal_adc_ex.c ****   /* Configure the offset: offset enable/disable, InjectedChannel, offset value */
1184:Drivers/STM32F1xx_HAL_Driver/Src/stm32f1xx_hal_adc_ex.c ****   switch(sConfigInjected->InjectedRank)
 2099              		.loc 1 1184 25
 2100 0216 3B68     		ldr	r3, [r7]
 2101 0218 5B68     		ldr	r3, [r3, #4]
 2102              		.loc 1 1184 3
 2103 021a 032B     		cmp	r3, #3
 2104 021c 22D0     		beq	.L125
 2105 021e 032B     		cmp	r3, #3
 2106 0220 2ED8     		bhi	.L126
 2107 0222 012B     		cmp	r3, #1
 2108 0224 02D0     		beq	.L127
 2109 0226 022B     		cmp	r3, #2
 2110 0228 0ED0     		beq	.L128
 2111 022a 29E0     		b	.L126
 2112              	.L127:
1185:Drivers/STM32F1xx_HAL_Driver/Src/stm32f1xx_hal_adc_ex.c ****   {
1186:Drivers/STM32F1xx_HAL_Driver/Src/stm32f1xx_hal_adc_ex.c ****     case 1:
1187:Drivers/STM32F1xx_HAL_Driver/Src/stm32f1xx_hal_adc_ex.c ****       /* Set injected channel 1 offset */
1188:Drivers/STM32F1xx_HAL_Driver/Src/stm32f1xx_hal_adc_ex.c ****       MODIFY_REG(hadc->Instance->JOFR1,
 2113              		.loc 1 1188 7
 2114 022c 7B68     		ldr	r3, [r7, #4]
 2115 022e 1B68     		ldr	r3, [r3]
 2116 0230 5B69     		ldr	r3, [r3, #20]
 2117 0232 23F47F63 		bic	r3, r3, #4080
ARM GAS  C:\Users\danie\AppData\Local\Temp\cczXkyFe.s 			page 59


 2118 0236 23F00F03 		bic	r3, r3, #15
 2119 023a 3A68     		ldr	r2, [r7]
 2120 023c D168     		ldr	r1, [r2, #12]
 2121 023e 7A68     		ldr	r2, [r7, #4]
 2122 0240 1268     		ldr	r2, [r2]
 2123 0242 0B43     		orrs	r3, r3, r1
 2124 0244 5361     		str	r3, [r2, #20]
1189:Drivers/STM32F1xx_HAL_Driver/Src/stm32f1xx_hal_adc_ex.c ****                  ADC_JOFR1_JOFFSET1,
1190:Drivers/STM32F1xx_HAL_Driver/Src/stm32f1xx_hal_adc_ex.c ****                  sConfigInjected->InjectedOffset);
1191:Drivers/STM32F1xx_HAL_Driver/Src/stm32f1xx_hal_adc_ex.c ****       break;
 2125              		.loc 1 1191 7
 2126 0246 29E0     		b	.L129
 2127              	.L128:
1192:Drivers/STM32F1xx_HAL_Driver/Src/stm32f1xx_hal_adc_ex.c ****     case 2:
1193:Drivers/STM32F1xx_HAL_Driver/Src/stm32f1xx_hal_adc_ex.c ****       /* Set injected channel 2 offset */
1194:Drivers/STM32F1xx_HAL_Driver/Src/stm32f1xx_hal_adc_ex.c ****       MODIFY_REG(hadc->Instance->JOFR2,
 2128              		.loc 1 1194 7
 2129 0248 7B68     		ldr	r3, [r7, #4]
 2130 024a 1B68     		ldr	r3, [r3]
 2131 024c 9B69     		ldr	r3, [r3, #24]
 2132 024e 23F47F63 		bic	r3, r3, #4080
 2133 0252 23F00F03 		bic	r3, r3, #15
 2134 0256 3A68     		ldr	r2, [r7]
 2135 0258 D168     		ldr	r1, [r2, #12]
 2136 025a 7A68     		ldr	r2, [r7, #4]
 2137 025c 1268     		ldr	r2, [r2]
 2138 025e 0B43     		orrs	r3, r3, r1
 2139 0260 9361     		str	r3, [r2, #24]
1195:Drivers/STM32F1xx_HAL_Driver/Src/stm32f1xx_hal_adc_ex.c ****                  ADC_JOFR2_JOFFSET2,
1196:Drivers/STM32F1xx_HAL_Driver/Src/stm32f1xx_hal_adc_ex.c ****                  sConfigInjected->InjectedOffset);
1197:Drivers/STM32F1xx_HAL_Driver/Src/stm32f1xx_hal_adc_ex.c ****       break;
 2140              		.loc 1 1197 7
 2141 0262 1BE0     		b	.L129
 2142              	.L125:
1198:Drivers/STM32F1xx_HAL_Driver/Src/stm32f1xx_hal_adc_ex.c ****     case 3:
1199:Drivers/STM32F1xx_HAL_Driver/Src/stm32f1xx_hal_adc_ex.c ****       /* Set injected channel 3 offset */
1200:Drivers/STM32F1xx_HAL_Driver/Src/stm32f1xx_hal_adc_ex.c ****       MODIFY_REG(hadc->Instance->JOFR3,
 2143              		.loc 1 1200 7
 2144 0264 7B68     		ldr	r3, [r7, #4]
 2145 0266 1B68     		ldr	r3, [r3]
 2146 0268 DB69     		ldr	r3, [r3, #28]
 2147 026a 23F47F63 		bic	r3, r3, #4080
 2148 026e 23F00F03 		bic	r3, r3, #15
 2149 0272 3A68     		ldr	r2, [r7]
 2150 0274 D168     		ldr	r1, [r2, #12]
 2151 0276 7A68     		ldr	r2, [r7, #4]
 2152 0278 1268     		ldr	r2, [r2]
 2153 027a 0B43     		orrs	r3, r3, r1
 2154 027c D361     		str	r3, [r2, #28]
1201:Drivers/STM32F1xx_HAL_Driver/Src/stm32f1xx_hal_adc_ex.c ****                  ADC_JOFR3_JOFFSET3,
1202:Drivers/STM32F1xx_HAL_Driver/Src/stm32f1xx_hal_adc_ex.c ****                  sConfigInjected->InjectedOffset);
1203:Drivers/STM32F1xx_HAL_Driver/Src/stm32f1xx_hal_adc_ex.c ****       break;
 2155              		.loc 1 1203 7
 2156 027e 0DE0     		b	.L129
 2157              	.L126:
1204:Drivers/STM32F1xx_HAL_Driver/Src/stm32f1xx_hal_adc_ex.c ****     case 4:
1205:Drivers/STM32F1xx_HAL_Driver/Src/stm32f1xx_hal_adc_ex.c ****     default:
ARM GAS  C:\Users\danie\AppData\Local\Temp\cczXkyFe.s 			page 60


1206:Drivers/STM32F1xx_HAL_Driver/Src/stm32f1xx_hal_adc_ex.c ****       MODIFY_REG(hadc->Instance->JOFR4,
 2158              		.loc 1 1206 7
 2159 0280 7B68     		ldr	r3, [r7, #4]
 2160 0282 1B68     		ldr	r3, [r3]
 2161 0284 1B6A     		ldr	r3, [r3, #32]
 2162 0286 23F47F63 		bic	r3, r3, #4080
 2163 028a 23F00F03 		bic	r3, r3, #15
 2164 028e 3A68     		ldr	r2, [r7]
 2165 0290 D168     		ldr	r1, [r2, #12]
 2166 0292 7A68     		ldr	r2, [r7, #4]
 2167 0294 1268     		ldr	r2, [r2]
 2168 0296 0B43     		orrs	r3, r3, r1
 2169 0298 1362     		str	r3, [r2, #32]
1207:Drivers/STM32F1xx_HAL_Driver/Src/stm32f1xx_hal_adc_ex.c ****                  ADC_JOFR4_JOFFSET4,
1208:Drivers/STM32F1xx_HAL_Driver/Src/stm32f1xx_hal_adc_ex.c ****                  sConfigInjected->InjectedOffset);
1209:Drivers/STM32F1xx_HAL_Driver/Src/stm32f1xx_hal_adc_ex.c ****       break;
 2170              		.loc 1 1209 7
 2171 029a 00BF     		nop
 2172              	.L129:
1210:Drivers/STM32F1xx_HAL_Driver/Src/stm32f1xx_hal_adc_ex.c ****   }
1211:Drivers/STM32F1xx_HAL_Driver/Src/stm32f1xx_hal_adc_ex.c ****   
1212:Drivers/STM32F1xx_HAL_Driver/Src/stm32f1xx_hal_adc_ex.c ****   /* If ADC1 Channel_16 or Channel_17 is selected, enable Temperature sensor  */
1213:Drivers/STM32F1xx_HAL_Driver/Src/stm32f1xx_hal_adc_ex.c ****   /* and VREFINT measurement path.                                            */
1214:Drivers/STM32F1xx_HAL_Driver/Src/stm32f1xx_hal_adc_ex.c ****   if ((sConfigInjected->InjectedChannel == ADC_CHANNEL_TEMPSENSOR) ||
 2173              		.loc 1 1214 23
 2174 029c 3B68     		ldr	r3, [r7]
 2175 029e 1B68     		ldr	r3, [r3]
 2176              		.loc 1 1214 6
 2177 02a0 102B     		cmp	r3, #16
 2178 02a2 03D0     		beq	.L130
1215:Drivers/STM32F1xx_HAL_Driver/Src/stm32f1xx_hal_adc_ex.c ****       (sConfigInjected->InjectedChannel == ADC_CHANNEL_VREFINT)      )
 2179              		.loc 1 1215 23 discriminator 1
 2180 02a4 3B68     		ldr	r3, [r7]
 2181 02a6 1B68     		ldr	r3, [r3]
1214:Drivers/STM32F1xx_HAL_Driver/Src/stm32f1xx_hal_adc_ex.c ****       (sConfigInjected->InjectedChannel == ADC_CHANNEL_VREFINT)      )
 2182              		.loc 1 1214 68 discriminator 1
 2183 02a8 112B     		cmp	r3, #17
 2184 02aa 32D1     		bne	.L131
 2185              	.L130:
1216:Drivers/STM32F1xx_HAL_Driver/Src/stm32f1xx_hal_adc_ex.c ****   {
1217:Drivers/STM32F1xx_HAL_Driver/Src/stm32f1xx_hal_adc_ex.c ****     /* For STM32F1 devices with several ADC: Only ADC1 can access internal    */
1218:Drivers/STM32F1xx_HAL_Driver/Src/stm32f1xx_hal_adc_ex.c ****     /* measurement channels (VrefInt/TempSensor). If these channels are       */
1219:Drivers/STM32F1xx_HAL_Driver/Src/stm32f1xx_hal_adc_ex.c ****     /* intended to be set on other ADC instances, an error is reported.       */
1220:Drivers/STM32F1xx_HAL_Driver/Src/stm32f1xx_hal_adc_ex.c ****     if (hadc->Instance == ADC1)
 2186              		.loc 1 1220 13
 2187 02ac 7B68     		ldr	r3, [r7, #4]
 2188 02ae 1B68     		ldr	r3, [r3]
 2189              		.loc 1 1220 8
 2190 02b0 1D4A     		ldr	r2, .L135
 2191 02b2 9342     		cmp	r3, r2
 2192 02b4 25D1     		bne	.L132
1221:Drivers/STM32F1xx_HAL_Driver/Src/stm32f1xx_hal_adc_ex.c ****     {
1222:Drivers/STM32F1xx_HAL_Driver/Src/stm32f1xx_hal_adc_ex.c ****       if (READ_BIT(hadc->Instance->CR2, ADC_CR2_TSVREFE) == RESET)
 2193              		.loc 1 1222 11
 2194 02b6 7B68     		ldr	r3, [r7, #4]
 2195 02b8 1B68     		ldr	r3, [r3]
 2196 02ba 9B68     		ldr	r3, [r3, #8]
ARM GAS  C:\Users\danie\AppData\Local\Temp\cczXkyFe.s 			page 61


 2197 02bc 03F40003 		and	r3, r3, #8388608
 2198              		.loc 1 1222 10
 2199 02c0 002B     		cmp	r3, #0
 2200 02c2 26D1     		bne	.L131
1223:Drivers/STM32F1xx_HAL_Driver/Src/stm32f1xx_hal_adc_ex.c ****       {
1224:Drivers/STM32F1xx_HAL_Driver/Src/stm32f1xx_hal_adc_ex.c ****         SET_BIT(hadc->Instance->CR2, ADC_CR2_TSVREFE);
 2201              		.loc 1 1224 9
 2202 02c4 7B68     		ldr	r3, [r7, #4]
 2203 02c6 1B68     		ldr	r3, [r3]
 2204 02c8 9A68     		ldr	r2, [r3, #8]
 2205 02ca 7B68     		ldr	r3, [r7, #4]
 2206 02cc 1B68     		ldr	r3, [r3]
 2207 02ce 42F40002 		orr	r2, r2, #8388608
 2208 02d2 9A60     		str	r2, [r3, #8]
1225:Drivers/STM32F1xx_HAL_Driver/Src/stm32f1xx_hal_adc_ex.c ****         
1226:Drivers/STM32F1xx_HAL_Driver/Src/stm32f1xx_hal_adc_ex.c ****         if ((sConfigInjected->InjectedChannel == ADC_CHANNEL_TEMPSENSOR))
 2209              		.loc 1 1226 29
 2210 02d4 3B68     		ldr	r3, [r7]
 2211 02d6 1B68     		ldr	r3, [r3]
 2212              		.loc 1 1226 12
 2213 02d8 102B     		cmp	r3, #16
 2214 02da 1AD1     		bne	.L131
1227:Drivers/STM32F1xx_HAL_Driver/Src/stm32f1xx_hal_adc_ex.c ****         {
1228:Drivers/STM32F1xx_HAL_Driver/Src/stm32f1xx_hal_adc_ex.c ****           /* Delay for temperature sensor stabilization time */
1229:Drivers/STM32F1xx_HAL_Driver/Src/stm32f1xx_hal_adc_ex.c ****           /* Compute number of CPU cycles to wait for */
1230:Drivers/STM32F1xx_HAL_Driver/Src/stm32f1xx_hal_adc_ex.c ****           wait_loop_index = (ADC_TEMPSENSOR_DELAY_US * (SystemCoreClock / 1000000U));
 2215              		.loc 1 1230 73
 2216 02dc 134B     		ldr	r3, .L135+4
 2217 02de 1B68     		ldr	r3, [r3]
 2218 02e0 134A     		ldr	r2, .L135+8
 2219 02e2 A2FB0323 		umull	r2, r3, r2, r3
 2220 02e6 9A0C     		lsrs	r2, r3, #18
 2221              		.loc 1 1230 54
 2222 02e8 1346     		mov	r3, r2
 2223 02ea 9B00     		lsls	r3, r3, #2
 2224 02ec 1344     		add	r3, r3, r2
 2225 02ee 5B00     		lsls	r3, r3, #1
 2226              		.loc 1 1230 27
 2227 02f0 BB60     		str	r3, [r7, #8]
1231:Drivers/STM32F1xx_HAL_Driver/Src/stm32f1xx_hal_adc_ex.c ****           while(wait_loop_index != 0U)
 2228              		.loc 1 1231 16
 2229 02f2 02E0     		b	.L133
 2230              	.L134:
1232:Drivers/STM32F1xx_HAL_Driver/Src/stm32f1xx_hal_adc_ex.c ****           {
1233:Drivers/STM32F1xx_HAL_Driver/Src/stm32f1xx_hal_adc_ex.c ****             wait_loop_index--;
 2231              		.loc 1 1233 28
 2232 02f4 BB68     		ldr	r3, [r7, #8]
 2233 02f6 013B     		subs	r3, r3, #1
 2234 02f8 BB60     		str	r3, [r7, #8]
 2235              	.L133:
1231:Drivers/STM32F1xx_HAL_Driver/Src/stm32f1xx_hal_adc_ex.c ****           while(wait_loop_index != 0U)
 2236              		.loc 1 1231 33
 2237 02fa BB68     		ldr	r3, [r7, #8]
1231:Drivers/STM32F1xx_HAL_Driver/Src/stm32f1xx_hal_adc_ex.c ****           while(wait_loop_index != 0U)
 2238              		.loc 1 1231 16
 2239 02fc 002B     		cmp	r3, #0
 2240 02fe F9D1     		bne	.L134
ARM GAS  C:\Users\danie\AppData\Local\Temp\cczXkyFe.s 			page 62


 2241 0300 07E0     		b	.L131
 2242              	.L132:
1234:Drivers/STM32F1xx_HAL_Driver/Src/stm32f1xx_hal_adc_ex.c ****           }
1235:Drivers/STM32F1xx_HAL_Driver/Src/stm32f1xx_hal_adc_ex.c ****         }
1236:Drivers/STM32F1xx_HAL_Driver/Src/stm32f1xx_hal_adc_ex.c ****       }
1237:Drivers/STM32F1xx_HAL_Driver/Src/stm32f1xx_hal_adc_ex.c ****     }
1238:Drivers/STM32F1xx_HAL_Driver/Src/stm32f1xx_hal_adc_ex.c ****     else
1239:Drivers/STM32F1xx_HAL_Driver/Src/stm32f1xx_hal_adc_ex.c ****     {
1240:Drivers/STM32F1xx_HAL_Driver/Src/stm32f1xx_hal_adc_ex.c ****       /* Update ADC state machine to error */
1241:Drivers/STM32F1xx_HAL_Driver/Src/stm32f1xx_hal_adc_ex.c ****       SET_BIT(hadc->State, HAL_ADC_STATE_ERROR_CONFIG);
 2243              		.loc 1 1241 7
 2244 0302 7B68     		ldr	r3, [r7, #4]
 2245 0304 9B6A     		ldr	r3, [r3, #40]
 2246 0306 43F02002 		orr	r2, r3, #32
 2247 030a 7B68     		ldr	r3, [r7, #4]
 2248 030c 9A62     		str	r2, [r3, #40]
1242:Drivers/STM32F1xx_HAL_Driver/Src/stm32f1xx_hal_adc_ex.c ****       
1243:Drivers/STM32F1xx_HAL_Driver/Src/stm32f1xx_hal_adc_ex.c ****       tmp_hal_status = HAL_ERROR;
 2249              		.loc 1 1243 22
 2250 030e 0123     		movs	r3, #1
 2251 0310 FB73     		strb	r3, [r7, #15]
 2252              	.L131:
1244:Drivers/STM32F1xx_HAL_Driver/Src/stm32f1xx_hal_adc_ex.c ****     }
1245:Drivers/STM32F1xx_HAL_Driver/Src/stm32f1xx_hal_adc_ex.c ****   }
1246:Drivers/STM32F1xx_HAL_Driver/Src/stm32f1xx_hal_adc_ex.c ****   
1247:Drivers/STM32F1xx_HAL_Driver/Src/stm32f1xx_hal_adc_ex.c ****   /* Process unlocked */
1248:Drivers/STM32F1xx_HAL_Driver/Src/stm32f1xx_hal_adc_ex.c ****   __HAL_UNLOCK(hadc);
 2253              		.loc 1 1248 3
 2254 0312 7B68     		ldr	r3, [r7, #4]
 2255 0314 0022     		movs	r2, #0
 2256 0316 83F82420 		strb	r2, [r3, #36]
1249:Drivers/STM32F1xx_HAL_Driver/Src/stm32f1xx_hal_adc_ex.c ****   
1250:Drivers/STM32F1xx_HAL_Driver/Src/stm32f1xx_hal_adc_ex.c ****   /* Return function status */
1251:Drivers/STM32F1xx_HAL_Driver/Src/stm32f1xx_hal_adc_ex.c ****   return tmp_hal_status;
 2257              		.loc 1 1251 10
 2258 031a FB7B     		ldrb	r3, [r7, #15]	@ zero_extendqisi2
 2259              	.L111:
1252:Drivers/STM32F1xx_HAL_Driver/Src/stm32f1xx_hal_adc_ex.c **** }
 2260              		.loc 1 1252 1
 2261 031c 1846     		mov	r0, r3
 2262 031e 1037     		adds	r7, r7, #16
 2263              	.LCFI61:
 2264              		.cfi_def_cfa_offset 8
 2265 0320 BD46     		mov	sp, r7
 2266              	.LCFI62:
 2267              		.cfi_def_cfa_register 13
 2268              		@ sp needed
 2269 0322 90BC     		pop	{r4, r7}
 2270              	.LCFI63:
 2271              		.cfi_restore 7
 2272              		.cfi_restore 4
 2273              		.cfi_def_cfa_offset 0
 2274 0324 7047     		bx	lr
 2275              	.L136:
 2276 0326 00BF     		.align	2
 2277              	.L135:
 2278 0328 00240140 		.word	1073816576
ARM GAS  C:\Users\danie\AppData\Local\Temp\cczXkyFe.s 			page 63


 2279 032c 00000000 		.word	SystemCoreClock
 2280 0330 83DE1B43 		.word	1125899907
 2281              		.cfi_endproc
 2282              	.LFE76:
 2284              		.section	.text.HAL_ADCEx_MultiModeConfigChannel,"ax",%progbits
 2285              		.align	1
 2286              		.global	HAL_ADCEx_MultiModeConfigChannel
 2287              		.syntax unified
 2288              		.thumb
 2289              		.thumb_func
 2290              		.fpu softvfp
 2292              	HAL_ADCEx_MultiModeConfigChannel:
 2293              	.LFB77:
1253:Drivers/STM32F1xx_HAL_Driver/Src/stm32f1xx_hal_adc_ex.c **** 
1254:Drivers/STM32F1xx_HAL_Driver/Src/stm32f1xx_hal_adc_ex.c **** #if defined (STM32F103x6) || defined (STM32F103xB) || defined (STM32F105xC) || defined (STM32F107xC
1255:Drivers/STM32F1xx_HAL_Driver/Src/stm32f1xx_hal_adc_ex.c **** /**
1256:Drivers/STM32F1xx_HAL_Driver/Src/stm32f1xx_hal_adc_ex.c ****   * @brief  Enable ADC multimode and configure multimode parameters
1257:Drivers/STM32F1xx_HAL_Driver/Src/stm32f1xx_hal_adc_ex.c ****   * @note   Possibility to update parameters on the fly:
1258:Drivers/STM32F1xx_HAL_Driver/Src/stm32f1xx_hal_adc_ex.c ****   *         This function initializes multimode parameters, following  
1259:Drivers/STM32F1xx_HAL_Driver/Src/stm32f1xx_hal_adc_ex.c ****   *         calls to this function can be used to reconfigure some parameters 
1260:Drivers/STM32F1xx_HAL_Driver/Src/stm32f1xx_hal_adc_ex.c ****   *         of structure "ADC_MultiModeTypeDef" on the fly, without reseting 
1261:Drivers/STM32F1xx_HAL_Driver/Src/stm32f1xx_hal_adc_ex.c ****   *         the ADCs (both ADCs of the common group).
1262:Drivers/STM32F1xx_HAL_Driver/Src/stm32f1xx_hal_adc_ex.c ****   *         The setting of these parameters is conditioned to ADC state.
1263:Drivers/STM32F1xx_HAL_Driver/Src/stm32f1xx_hal_adc_ex.c ****   *         For parameters constraints, see comments of structure 
1264:Drivers/STM32F1xx_HAL_Driver/Src/stm32f1xx_hal_adc_ex.c ****   *         "ADC_MultiModeTypeDef".
1265:Drivers/STM32F1xx_HAL_Driver/Src/stm32f1xx_hal_adc_ex.c ****   * @note   To change back configuration from multimode to single mode, ADC must
1266:Drivers/STM32F1xx_HAL_Driver/Src/stm32f1xx_hal_adc_ex.c ****   *         be reset (using function HAL_ADC_Init() ).
1267:Drivers/STM32F1xx_HAL_Driver/Src/stm32f1xx_hal_adc_ex.c ****   * @param  hadc: ADC handle
1268:Drivers/STM32F1xx_HAL_Driver/Src/stm32f1xx_hal_adc_ex.c ****   * @param  multimode: Structure of ADC multimode configuration
1269:Drivers/STM32F1xx_HAL_Driver/Src/stm32f1xx_hal_adc_ex.c ****   * @retval HAL status
1270:Drivers/STM32F1xx_HAL_Driver/Src/stm32f1xx_hal_adc_ex.c ****   */
1271:Drivers/STM32F1xx_HAL_Driver/Src/stm32f1xx_hal_adc_ex.c **** HAL_StatusTypeDef HAL_ADCEx_MultiModeConfigChannel(ADC_HandleTypeDef* hadc, ADC_MultiModeTypeDef* m
1272:Drivers/STM32F1xx_HAL_Driver/Src/stm32f1xx_hal_adc_ex.c **** {
 2294              		.loc 1 1272 1
 2295              		.cfi_startproc
 2296              		@ args = 0, pretend = 0, frame = 64
 2297              		@ frame_needed = 1, uses_anonymous_args = 0
 2298 0000 80B5     		push	{r7, lr}
 2299              	.LCFI64:
 2300              		.cfi_def_cfa_offset 8
 2301              		.cfi_offset 7, -8
 2302              		.cfi_offset 14, -4
 2303 0002 90B0     		sub	sp, sp, #64
 2304              	.LCFI65:
 2305              		.cfi_def_cfa_offset 72
 2306 0004 00AF     		add	r7, sp, #0
 2307              	.LCFI66:
 2308              		.cfi_def_cfa_register 7
 2309 0006 7860     		str	r0, [r7, #4]
 2310 0008 3960     		str	r1, [r7]
1273:Drivers/STM32F1xx_HAL_Driver/Src/stm32f1xx_hal_adc_ex.c ****   HAL_StatusTypeDef tmp_hal_status = HAL_OK;
 2311              		.loc 1 1273 21
 2312 000a 0023     		movs	r3, #0
 2313 000c 87F83F30 		strb	r3, [r7, #63]
1274:Drivers/STM32F1xx_HAL_Driver/Src/stm32f1xx_hal_adc_ex.c ****   ADC_HandleTypeDef tmphadcSlave={0};
 2314              		.loc 1 1274 21
 2315 0010 07F10C03 		add	r3, r7, #12
ARM GAS  C:\Users\danie\AppData\Local\Temp\cczXkyFe.s 			page 64


 2316 0014 3022     		movs	r2, #48
 2317 0016 0021     		movs	r1, #0
 2318 0018 1846     		mov	r0, r3
 2319 001a FFF7FEFF 		bl	memset
1275:Drivers/STM32F1xx_HAL_Driver/Src/stm32f1xx_hal_adc_ex.c ****   
1276:Drivers/STM32F1xx_HAL_Driver/Src/stm32f1xx_hal_adc_ex.c ****   /* Check the parameters */
1277:Drivers/STM32F1xx_HAL_Driver/Src/stm32f1xx_hal_adc_ex.c ****   assert_param(IS_ADC_MULTIMODE_MASTER_INSTANCE(hadc->Instance));
1278:Drivers/STM32F1xx_HAL_Driver/Src/stm32f1xx_hal_adc_ex.c ****   assert_param(IS_ADC_MODE(multimode->Mode));
1279:Drivers/STM32F1xx_HAL_Driver/Src/stm32f1xx_hal_adc_ex.c ****   
1280:Drivers/STM32F1xx_HAL_Driver/Src/stm32f1xx_hal_adc_ex.c ****   /* Process locked */
1281:Drivers/STM32F1xx_HAL_Driver/Src/stm32f1xx_hal_adc_ex.c ****   __HAL_LOCK(hadc);
 2320              		.loc 1 1281 3
 2321 001e 7B68     		ldr	r3, [r7, #4]
 2322 0020 93F82430 		ldrb	r3, [r3, #36]	@ zero_extendqisi2
 2323 0024 012B     		cmp	r3, #1
 2324 0026 01D1     		bne	.L138
 2325              		.loc 1 1281 3 is_stmt 0 discriminator 1
 2326 0028 0223     		movs	r3, #2
 2327 002a 32E0     		b	.L142
 2328              	.L138:
 2329              		.loc 1 1281 3 discriminator 2
 2330 002c 7B68     		ldr	r3, [r7, #4]
 2331 002e 0122     		movs	r2, #1
 2332 0030 83F82420 		strb	r2, [r3, #36]
1282:Drivers/STM32F1xx_HAL_Driver/Src/stm32f1xx_hal_adc_ex.c ****   
1283:Drivers/STM32F1xx_HAL_Driver/Src/stm32f1xx_hal_adc_ex.c ****   /* Set a temporary handle of the ADC slave associated to the ADC master     */
1284:Drivers/STM32F1xx_HAL_Driver/Src/stm32f1xx_hal_adc_ex.c ****   ADC_MULTI_SLAVE(hadc, &tmphadcSlave);
 2333              		.loc 1 1284 3 is_stmt 1 discriminator 2
 2334 0034 194B     		ldr	r3, .L143
 2335 0036 FB60     		str	r3, [r7, #12]
1285:Drivers/STM32F1xx_HAL_Driver/Src/stm32f1xx_hal_adc_ex.c ****   
1286:Drivers/STM32F1xx_HAL_Driver/Src/stm32f1xx_hal_adc_ex.c ****   /* Parameters update conditioned to ADC state:                              */
1287:Drivers/STM32F1xx_HAL_Driver/Src/stm32f1xx_hal_adc_ex.c ****   /* Parameters that can be updated when ADC is disabled or enabled without   */
1288:Drivers/STM32F1xx_HAL_Driver/Src/stm32f1xx_hal_adc_ex.c ****   /* conversion on going on regular group:                                    */
1289:Drivers/STM32F1xx_HAL_Driver/Src/stm32f1xx_hal_adc_ex.c ****   /*  - ADC master and ADC slave DMA configuration                            */
1290:Drivers/STM32F1xx_HAL_Driver/Src/stm32f1xx_hal_adc_ex.c ****   /* Parameters that can be updated only when ADC is disabled:                */
1291:Drivers/STM32F1xx_HAL_Driver/Src/stm32f1xx_hal_adc_ex.c ****   /*  - Multimode mode selection                                              */
1292:Drivers/STM32F1xx_HAL_Driver/Src/stm32f1xx_hal_adc_ex.c ****   /* To optimize code, all multimode settings can be set when both ADCs of    */
1293:Drivers/STM32F1xx_HAL_Driver/Src/stm32f1xx_hal_adc_ex.c ****   /* the common group are in state: disabled.                                 */
1294:Drivers/STM32F1xx_HAL_Driver/Src/stm32f1xx_hal_adc_ex.c ****   if ((ADC_IS_ENABLE(hadc) == RESET)                     &&
 2336              		.loc 1 1294 8 discriminator 2
 2337 0038 7B68     		ldr	r3, [r7, #4]
 2338 003a 1B68     		ldr	r3, [r3]
 2339 003c 9B68     		ldr	r3, [r3, #8]
 2340 003e 03F00103 		and	r3, r3, #1
 2341              		.loc 1 1294 6 discriminator 2
 2342 0042 012B     		cmp	r3, #1
 2343 0044 16D0     		beq	.L140
1295:Drivers/STM32F1xx_HAL_Driver/Src/stm32f1xx_hal_adc_ex.c ****       (ADC_IS_ENABLE(&tmphadcSlave) == RESET)            &&
 2344              		.loc 1 1295 8 discriminator 1
 2345 0046 FB68     		ldr	r3, [r7, #12]
 2346 0048 9B68     		ldr	r3, [r3, #8]
 2347 004a 03F00103 		and	r3, r3, #1
1294:Drivers/STM32F1xx_HAL_Driver/Src/stm32f1xx_hal_adc_ex.c ****       (ADC_IS_ENABLE(&tmphadcSlave) == RESET)            &&
 2348              		.loc 1 1294 58 discriminator 1
 2349 004e 012B     		cmp	r3, #1
 2350 0050 10D0     		beq	.L140
ARM GAS  C:\Users\danie\AppData\Local\Temp\cczXkyFe.s 			page 65


1296:Drivers/STM32F1xx_HAL_Driver/Src/stm32f1xx_hal_adc_ex.c ****       (IS_ADC_MULTIMODE_MASTER_INSTANCE(hadc->Instance))   )
 2351              		.loc 1 1296 8
 2352 0052 7B68     		ldr	r3, [r7, #4]
 2353 0054 1B68     		ldr	r3, [r3]
1295:Drivers/STM32F1xx_HAL_Driver/Src/stm32f1xx_hal_adc_ex.c ****       (ADC_IS_ENABLE(&tmphadcSlave) == RESET)            &&
 2354              		.loc 1 1295 58
 2355 0056 124A     		ldr	r2, .L143+4
 2356 0058 9342     		cmp	r3, r2
 2357 005a 0BD1     		bne	.L140
1297:Drivers/STM32F1xx_HAL_Driver/Src/stm32f1xx_hal_adc_ex.c ****   {
1298:Drivers/STM32F1xx_HAL_Driver/Src/stm32f1xx_hal_adc_ex.c ****     MODIFY_REG(hadc->Instance->CR1,
 2358              		.loc 1 1298 5
 2359 005c 7B68     		ldr	r3, [r7, #4]
 2360 005e 1B68     		ldr	r3, [r3]
 2361 0060 5B68     		ldr	r3, [r3, #4]
 2362 0062 23F47021 		bic	r1, r3, #983040
 2363 0066 3B68     		ldr	r3, [r7]
 2364 0068 1A68     		ldr	r2, [r3]
 2365 006a 7B68     		ldr	r3, [r7, #4]
 2366 006c 1B68     		ldr	r3, [r3]
 2367 006e 0A43     		orrs	r2, r2, r1
 2368 0070 5A60     		str	r2, [r3, #4]
 2369 0072 08E0     		b	.L141
 2370              	.L140:
1299:Drivers/STM32F1xx_HAL_Driver/Src/stm32f1xx_hal_adc_ex.c ****                ADC_CR1_DUALMOD    ,
1300:Drivers/STM32F1xx_HAL_Driver/Src/stm32f1xx_hal_adc_ex.c ****                multimode->Mode     );
1301:Drivers/STM32F1xx_HAL_Driver/Src/stm32f1xx_hal_adc_ex.c ****   }
1302:Drivers/STM32F1xx_HAL_Driver/Src/stm32f1xx_hal_adc_ex.c ****   /* If one of the ADC sharing the same common group is enabled, no update    */
1303:Drivers/STM32F1xx_HAL_Driver/Src/stm32f1xx_hal_adc_ex.c ****   /* could be done on neither of the multimode structure parameters.          */
1304:Drivers/STM32F1xx_HAL_Driver/Src/stm32f1xx_hal_adc_ex.c ****   else
1305:Drivers/STM32F1xx_HAL_Driver/Src/stm32f1xx_hal_adc_ex.c ****   {
1306:Drivers/STM32F1xx_HAL_Driver/Src/stm32f1xx_hal_adc_ex.c ****     /* Update ADC state machine to error */
1307:Drivers/STM32F1xx_HAL_Driver/Src/stm32f1xx_hal_adc_ex.c ****     SET_BIT(hadc->State, HAL_ADC_STATE_ERROR_CONFIG);
 2371              		.loc 1 1307 5
 2372 0074 7B68     		ldr	r3, [r7, #4]
 2373 0076 9B6A     		ldr	r3, [r3, #40]
 2374 0078 43F02002 		orr	r2, r3, #32
 2375 007c 7B68     		ldr	r3, [r7, #4]
 2376 007e 9A62     		str	r2, [r3, #40]
1308:Drivers/STM32F1xx_HAL_Driver/Src/stm32f1xx_hal_adc_ex.c ****     
1309:Drivers/STM32F1xx_HAL_Driver/Src/stm32f1xx_hal_adc_ex.c ****     tmp_hal_status = HAL_ERROR;
 2377              		.loc 1 1309 20
 2378 0080 0123     		movs	r3, #1
 2379 0082 87F83F30 		strb	r3, [r7, #63]
 2380              	.L141:
1310:Drivers/STM32F1xx_HAL_Driver/Src/stm32f1xx_hal_adc_ex.c ****   }
1311:Drivers/STM32F1xx_HAL_Driver/Src/stm32f1xx_hal_adc_ex.c ****     
1312:Drivers/STM32F1xx_HAL_Driver/Src/stm32f1xx_hal_adc_ex.c ****     
1313:Drivers/STM32F1xx_HAL_Driver/Src/stm32f1xx_hal_adc_ex.c ****   /* Process unlocked */
1314:Drivers/STM32F1xx_HAL_Driver/Src/stm32f1xx_hal_adc_ex.c ****   __HAL_UNLOCK(hadc);
 2381              		.loc 1 1314 3
 2382 0086 7B68     		ldr	r3, [r7, #4]
 2383 0088 0022     		movs	r2, #0
 2384 008a 83F82420 		strb	r2, [r3, #36]
1315:Drivers/STM32F1xx_HAL_Driver/Src/stm32f1xx_hal_adc_ex.c ****   
1316:Drivers/STM32F1xx_HAL_Driver/Src/stm32f1xx_hal_adc_ex.c ****   /* Return function status */
1317:Drivers/STM32F1xx_HAL_Driver/Src/stm32f1xx_hal_adc_ex.c ****   return tmp_hal_status;
ARM GAS  C:\Users\danie\AppData\Local\Temp\cczXkyFe.s 			page 66


 2385              		.loc 1 1317 10
 2386 008e 97F83F30 		ldrb	r3, [r7, #63]	@ zero_extendqisi2
 2387              	.L142:
1318:Drivers/STM32F1xx_HAL_Driver/Src/stm32f1xx_hal_adc_ex.c **** } 
 2388              		.loc 1 1318 1 discriminator 1
 2389 0092 1846     		mov	r0, r3
 2390 0094 4037     		adds	r7, r7, #64
 2391              	.LCFI67:
 2392              		.cfi_def_cfa_offset 8
 2393 0096 BD46     		mov	sp, r7
 2394              	.LCFI68:
 2395              		.cfi_def_cfa_register 13
 2396              		@ sp needed
 2397 0098 80BD     		pop	{r7, pc}
 2398              	.L144:
 2399 009a 00BF     		.align	2
 2400              	.L143:
 2401 009c 00280140 		.word	1073817600
 2402 00a0 00240140 		.word	1073816576
 2403              		.cfi_endproc
 2404              	.LFE77:
 2406              		.text
 2407              	.Letext0:
 2408              		.file 2 "c:\\arm-gcc\\tools\\gcc-arm-none-eabi-10-2020-q4-major\\arm-none-eabi\\include\\machine\\
 2409              		.file 3 "c:\\arm-gcc\\tools\\gcc-arm-none-eabi-10-2020-q4-major\\arm-none-eabi\\include\\sys\\_std
 2410              		.file 4 "Drivers/CMSIS/Device/ST/STM32F1xx/Include/stm32f103xb.h"
 2411              		.file 5 "Drivers/CMSIS/Device/ST/STM32F1xx/Include/stm32f1xx.h"
 2412              		.file 6 "Drivers/STM32F1xx_HAL_Driver/Inc/stm32f1xx_hal_def.h"
 2413              		.file 7 "Drivers/STM32F1xx_HAL_Driver/Inc/stm32f1xx_hal_dma.h"
 2414              		.file 8 "Drivers/STM32F1xx_HAL_Driver/Inc/stm32f1xx_hal_adc.h"
 2415              		.file 9 "Drivers/STM32F1xx_HAL_Driver/Inc/stm32f1xx_hal_adc_ex.h"
 2416              		.file 10 "Drivers/CMSIS/Device/ST/STM32F1xx/Include/system_stm32f1xx.h"
ARM GAS  C:\Users\danie\AppData\Local\Temp\cczXkyFe.s 			page 67

